

Microchip MPLAB XC8 Assembler V2.36 build 20220127204148 
                                                                                               Mon May 02 17:30:10 2022

Microchip MPLAB XC8 C Compiler v2.36 (Free license) build 20220127204148 Og1 
     1                           	processor	18F45K50
     2                           	fnconf	rparam,??,?,0
     3                           	pagewidth 120
     4                           	opt	flic
     5                           	psect	smallconst,global,reloc=2,class=SMALLCONST,delta=1,noexec
     6                           	psect	cinit,global,reloc=2,class=CODE,delta=1
     7                           	psect	bssBANK0,global,class=BANK0,space=1,delta=1,lowdata,noexec
     8                           	psect	cstackBANK1,global,class=BANK1,space=1,delta=1,lowdata,noexec
     9                           	psect	cstackBANK0,global,class=BANK0,space=1,delta=1,lowdata,noexec
    10                           	psect	cstackCOMRAM,global,class=COMRAM,space=1,delta=1,lowdata,noexec
    11                           	psect	text0,global,reloc=2,class=CODE,delta=1
    12                           	psect	text1,global,reloc=2,class=CODE,delta=1
    13                           	psect	text2,global,reloc=2,class=CODE,delta=1,group=2
    14                           	psect	text3,global,reloc=2,class=CODE,delta=1,group=2
    15                           	psect	text4,global,reloc=2,class=CODE,delta=1,group=2
    16                           	psect	text5,global,reloc=2,class=CODE,delta=1,group=1
    17                           	psect	text6,global,reloc=2,class=CODE,delta=1,group=2
    18                           	psect	text7,global,reloc=2,class=CODE,delta=1,group=1
    19                           	psect	text8,global,reloc=2,class=CODE,delta=1,group=2
    20                           	psect	text9,global,reloc=2,class=CODE,delta=1,group=1
    21                           	psect	text10,global,reloc=2,class=CODE,delta=1,group=1
    22                           	psect	text11,global,reloc=2,class=CODE,delta=1,group=1
    23                           	psect	text12,global,reloc=2,class=CODE,delta=1,group=1
    24                           	psect	text13,global,reloc=2,class=CODE,delta=1,group=1
    25                           	psect	text14,global,reloc=2,class=CODE,delta=1
    26                           	psect	text15,global,reloc=2,class=CODE,delta=1,group=1
    27                           	psect	text16,global,reloc=2,class=CODE,delta=1
    28                           	psect	text17,global,reloc=2,class=CODE,delta=1
    29                           	psect	intsave_regs,global,class=BIGRAM,space=1,delta=1,noexec
    30                           	psect	rparam,global,class=COMRAM,space=1,delta=1,noexec
    31                           	psect	idloc,global,abs,ovrld,class=IDLOC,space=5,delta=1,noexec
    32                           	psect	config,global,abs,ovrld,class=CONFIG,space=4,delta=1,noexec
    33  0000                     
    34                           ; Version 2.35
    35                           ; Generated 05/05/2021 GMT
    36                           ; 
    37                           ; Copyright © 2021, Microchip Technology Inc. and its subsidiaries ("Microchip")
    38                           ; All rights reserved.
    39                           ; 
    40                           ; This software is developed by Microchip Technology Inc. and its subsidiaries ("Microch
      +                          ip").
    41                           ; 
    42                           ; Redistribution and use in source and binary forms, with or without modification, are
    43                           ; permitted provided that the following conditions are met:
    44                           ; 
    45                           ;     1. Redistributions of source code must retain the above copyright notice, this lis
      +                          t of
    46                           ;        conditions and the following disclaimer.
    47                           ; 
    48                           ;     2. Redistributions in binary form must reproduce the above copyright notice, this 
      +                          list
    49                           ;        of conditions and the following disclaimer in the documentation and/or other
    50                           ;        materials provided with the distribution. Publication is not required when
    51                           ;        this file is used in an embedded application.
    52                           ; 
    53                           ;     3. Microchip's name may not be used to endorse or promote products derived from th
      +                          is
    54                           ;        software without specific prior written permission.
    55                           ; 
    56                           ; THIS SOFTWARE IS PROVIDED BY MICROCHIP "AS IS" AND ANY EXPRESS OR IMPLIED WARRANTIES,
    57                           ; INCLUDING, BUT NOT LIMITED TO, THE IMPLIED WARRANTIES OF MERCHANTABILITY AND FITNESS F
      +                          OR
    58                           ; PURPOSE ARE DISCLAIMED.  IN NO EVENT SHALL MICROCHIP BE LIABLE FOR ANY DIRECT, INDIREC
      +                          T,
    59                           ; INCIDENTAL, SPECIAL, EXEMPLARY, OR CONSEQUENTIAL DAMAGES (INCLUDING BUT NOT LIMITED TO
    60                           ; PROCUREMENT OF SUBSTITUTE GOODS OR SERVICES; LOSS OF USE, DATA OR PROFITS; OR BUSINESS
    61                           ; INTERRUPTION) HOWSOEVER CAUSED AND ON ANY THEORY OF LIABILITY, WHETHER IN CONTRACT, ST
      +                          RICT
    62                           ; LIABILITY, OR TORT (INCLUDING NEGLIGENCE OR OTHERWISE) ARISING IN ANY WAY OUT OF THE U
      +                          SE OF
    63                           ; THIS SOFTWARE, EVEN IF ADVISED OF THE POSSIBILITY OF SUCH DAMAGE.
    64                           ; 
    65                           ; 
    66                           ; Code-generator required, PIC18F45K50 Definitions
    67                           ; 
    68                           ; SFR Addresses
    69  0000                     
    70                           	psect	smallconst
    71  000800                     __psmallconst:
    72                           	callstack 0
    73  000800  00                 	db	0
    74  000801                     _dp_l:
    75                           	callstack 0
    76  000801  0000               	dw	0
    77  000803  0000               	dw	0
    78  000805  CFDC               	dw	53212
    79  000807  35D1               	dw	13777
    80  000809                     __end_of_dp_l:
    81                           	callstack 0
    82  000809                     _dp_h:
    83                           	callstack 0
    84  000809  0000               	dw	0
    85  00080B  0000               	dw	0
    86  00080D  C000               	dw	49152
    87  00080F  3F15               	dw	16149
    88  000811                     __end_of_dp_h:
    89                           	callstack 0
    90  000811  4260               	dw	16992
    91  000813  0DA2               	dw	3490
    92  000815                     __end_of_tiny@sqrtf$F764:
    93                           	callstack 0
    94  000815  A570               	dw	42352
    95  000817  36EC               	dw	14060
    96  000819                     __end_of_ivln2_l:
    97                           	callstack 0
    98  000819  AA3B               	dw	43579
    99  00081B  3FB8               	dw	16312
   100  00081D                     __end_of_ivln2:
   101                           	callstack 0
   102  00081D  384F               	dw	14415
   103  00081F  3F76               	dw	16246
   104  000821                     __end_of_cp:
   105                           	callstack 0
   106  000821  AA3C               	dw	43580
   107  000823  3338               	dw	13112
   108  000825                     __end_of_ovt:
   109                           	callstack 0
   110  000825  BE8C               	dw	48780
   111  000827  35BF               	dw	13759
   112  000829                     __end_of_lg2_l:
   113                           	callstack 0
   114  000829  7200               	dw	29184
   115  00082B  3F31               	dw	16177
   116  00082D                     __end_of_lg2_h:
   117                           	callstack 0
   118  00082D  7218               	dw	29208
   119  00082F  3F31               	dw	16177
   120  000831                     __end_of_lg2:
   121                           	callstack 0
   122  000831  BB4C               	dw	47948
   123  000833  3331               	dw	13105
   124  000835                     __end_of_P5:
   125                           	callstack 0
   126  000835  EA0E               	dw	59918
   127  000837  B5DD               	dw	46557
   128  000839                     __end_of_P4:
   129                           	callstack 0
   130  000839  B355               	dw	45909
   131  00083B  388A               	dw	14474
   132  00083D                     __end_of_P3:
   133                           	callstack 0
   134  00083D  0B61               	dw	2913
   135  00083F  BB36               	dw	47926
   136  000841                     __end_of_P2:
   137                           	callstack 0
   138  000841  AAAB               	dw	43691
   139  000843  3E2A               	dw	15914
   140  000845                     __end_of_P1:
   141                           	callstack 0
   142  000845  F142               	dw	61762
   143  000847  3E53               	dw	15955
   144  000849                     __end_of_L6:
   145                           	callstack 0
   146  000849  3255               	dw	12885
   147  00084B  3E6C               	dw	15980
   148  00084D                     __end_of_L5:
   149                           	callstack 0
   150  00084D  A305               	dw	41733
   151  00084F  3E8B               	dw	16011
   152  000851                     __end_of_L4:
   153                           	callstack 0
   154  000851  AAAB               	dw	43691
   155  000853  3EAA               	dw	16042
   156  000855                     __end_of_L3:
   157                           	callstack 0
   158  000855  6DB7               	dw	28087
   159  000857  3EDB               	dw	16091
   160  000859                     __end_of_L2:
   161                           	callstack 0
   162  000859  999A               	dw	39322
   163  00085B  3F19               	dw	16153
   164  00085D                     __end_of_L1:
   165                           	callstack 0
   166  00085D  4260               	dw	16992
   167  00085F  0DA2               	dw	3490
   168  000861                     __end_of_tiny:
   169                           	callstack 0
   170  000861  F2CA               	dw	62154
   171  000863  7149               	dw	29001
   172  000865                     __end_of_huge:
   173                           	callstack 0
   174  000865  0000               	dw	0
   175  000867  4B80               	dw	19328
   176  000869                     __end_of_two24:
   177                           	callstack 0
   178  000869                     _bp:
   179                           	callstack 0
   180  000869  0000               	dw	0
   181  00086B  3F80               	dw	16256
   182  00086D  0000               	dw	0
   183  00086F  3FC0               	dw	16320
   184  000871                     __end_of_bp:
   185                           	callstack 0
   186  000871  AA00               	dw	43520
   187  000873  3FB8               	dw	16312
   188  000875                     __end_of_ivln2_h:
   189                           	callstack 0
   190  000875  23C6               	dw	9158
   191  000877  B8F6               	dw	47350
   192  000879                     __end_of_cp_l:
   193                           	callstack 0
   194  000879  4000               	dw	16384
   195  00087B  3F76               	dw	16246
   196  00087D                     __end_of_cp_h:
   197                           	callstack 0
   198  0000                     _ANSELA	set	3931
   199  0000                     _ANSELD	set	3934
   200  0000                     _ANSELB	set	3932
   201  0000                     _TRISA	set	3986
   202  0000                     _TRISD	set	3989
   203  0000                     _TRISB	set	3987
   204  0000                     _PORTAbits	set	3968
   205  0000                     _LATAbits	set	3977
   206  0000                     _OSCCON	set	4051
   207  0000                     _LATD	set	3980
   208  0000                     _LATB	set	3978
   209  00087D                     STR_1:
   210  00087D  00                 	db	0
   211  00087E  00                 	db	0	; dummy byte at the end
   212  0000                     
   213                           ; #config settings
   214                           
   215                           	psect	cinit
   216  0052C4                     __pcinit:
   217                           	callstack 0
   218  0052C4                     start_initialization:
   219                           	callstack 0
   220  0052C4                     __initialization:
   221                           	callstack 0
   222                           
   223                           ; Clear objects allocated to BANK0 (10 bytes)
   224  0052C4  EE00  F0A2         	lfsr	0,__pbssBANK0
   225  0052C8  0E0A               	movlw	10
   226  0052CA                     clear_0:
   227  0052CA  6AEE               	clrf	postinc0,c
   228  0052CC  06E8               	decf	wreg,f,c
   229  0052CE  E1FD               	bnz	clear_0
   230  0052D0                     end_of_initialization:
   231                           	callstack 0
   232  0052D0                     __end_of__initialization:
   233                           	callstack 0
   234  0052D0  0E00               	movlw	low (__Lmediumconst shr (0+16))
   235  0052D2  6EF8               	movwf	tblptru,c
   236  0052D4  0100               	movlb	0
   237  0052D6  EF7C  F01D         	goto	_main	;jump to C main() function
   238                           
   239                           	psect	bssBANK0
   240  0000A2                     __pbssBANK0:
   241                           	callstack 0
   242  0000A2                     fabsf@F465:
   243                           	callstack 0
   244  0000A2                     	ds	4
   245  0000A6                     main@num:
   246                           	callstack 0
   247  0000A6                     	ds	4
   248  0000AA                     _errno:
   249                           	callstack 0
   250  0000AA                     	ds	2
   251                           
   252                           	psect	cstackBANK1
   253  000100                     __pcstackBANK1:
   254                           	callstack 0
   255  000100                     _powf$964:
   256                           	callstack 0
   257                           
   258                           ; 4 bytes @ 0x0
   259  000100                     	ds	4
   260  000104                     _powf$965:
   261                           	callstack 0
   262                           
   263                           ; 4 bytes @ 0x4
   264  000104                     	ds	4
   265  000108                     _powf$969:
   266                           	callstack 0
   267                           
   268                           ; 4 bytes @ 0x8
   269  000108                     	ds	4
   270  00010C                     _powf$970:
   271                           	callstack 0
   272                           
   273                           ; 4 bytes @ 0xC
   274  00010C                     	ds	4
   275  000110                     _powf$971:
   276                           	callstack 0
   277                           
   278                           ; 4 bytes @ 0x10
   279  000110                     	ds	4
   280  000114                     _powf$972:
   281                           	callstack 0
   282                           
   283                           ; 4 bytes @ 0x14
   284  000114                     	ds	4
   285  000118                     _powf$973:
   286                           	callstack 0
   287                           
   288                           ; 4 bytes @ 0x18
   289  000118                     	ds	4
   290  00011C                     powf@t2:
   291                           	callstack 0
   292                           
   293                           ; 4 bytes @ 0x1C
   294  00011C                     	ds	4
   295  000120                     powf@z_h:
   296                           	callstack 0
   297                           
   298                           ; 4 bytes @ 0x20
   299  000120                     	ds	4
   300  000124                     powf@z_l:
   301                           	callstack 0
   302                           
   303                           ; 4 bytes @ 0x24
   304  000124                     	ds	4
   305  000128                     powf@y1:
   306                           	callstack 0
   307                           
   308                           ; 4 bytes @ 0x28
   309  000128                     	ds	4
   310  00012C                     powf@i:
   311                           	callstack 0
   312                           
   313                           ; 4 bytes @ 0x2C
   314  00012C                     	ds	4
   315  000130                     powf@s_l:
   316                           	callstack 0
   317                           
   318                           ; 4 bytes @ 0x30
   319  000130                     	ds	4
   320  000134                     powf@t_l:
   321                           	callstack 0
   322                           
   323                           ; 4 bytes @ 0x34
   324  000134                     	ds	4
   325  000138                     _powf$963:
   326                           	callstack 0
   327                           
   328                           ; 4 bytes @ 0x38
   329  000138                     	ds	4
   330  00013C                     _powf$967:
   331                           	callstack 0
   332                           
   333                           ; 4 bytes @ 0x3C
   334  00013C                     	ds	4
   335  000140                     _powf$968:
   336                           	callstack 0
   337                           
   338                           ; 4 bytes @ 0x40
   339  000140                     	ds	4
   340  000144                     powf@w:
   341                           	callstack 0
   342                           
   343                           ; 4 bytes @ 0x44
   344  000144                     	ds	4
   345  000148                     _powf$961:
   346                           	callstack 0
   347                           
   348                           ; 4 bytes @ 0x48
   349  000148                     	ds	4
   350  00014C                     powf@r:
   351                           	callstack 0
   352                           
   353                           ; 4 bytes @ 0x4C
   354  00014C                     	ds	4
   355  000150                     powf@yisint:
   356                           	callstack 0
   357                           
   358                           ; 4 bytes @ 0x50
   359  000150                     	ds	4
   360  000154                     _powf$960:
   361                           	callstack 0
   362                           
   363                           ; 4 bytes @ 0x54
   364  000154                     	ds	4
   365  000158                     _powf$966:
   366                           	callstack 0
   367                           
   368                           ; 4 bytes @ 0x58
   369  000158                     	ds	4
   370  00015C                     powf@s:
   371                           	callstack 0
   372                           
   373                           ; 4 bytes @ 0x5C
   374  00015C                     	ds	4
   375  000160                     powf@hx:
   376                           	callstack 0
   377                           
   378                           ; 4 bytes @ 0x60
   379  000160                     	ds	4
   380  000164                     powf@p_l:
   381                           	callstack 0
   382                           
   383                           ; 4 bytes @ 0x64
   384  000164                     	ds	4
   385  000168                     powf@t_h:
   386                           	callstack 0
   387                           
   388                           ; 4 bytes @ 0x68
   389  000168                     	ds	4
   390  00016C                     powf@s_h:
   391                           	callstack 0
   392                           
   393                           ; 4 bytes @ 0x6C
   394  00016C                     	ds	4
   395  000170                     powf@ax:
   396                           	callstack 0
   397                           
   398                           ; 4 bytes @ 0x70
   399  000170                     	ds	4
   400  000174                     powf@u:
   401                           	callstack 0
   402                           
   403                           ; 4 bytes @ 0x74
   404  000174                     	ds	4
   405  000178                     powf@v:
   406                           	callstack 0
   407                           
   408                           ; 4 bytes @ 0x78
   409  000178                     	ds	4
   410  00017C                     powf@n:
   411                           	callstack 0
   412                           
   413                           ; 4 bytes @ 0x7C
   414  00017C                     	ds	4
   415  000180                     powf@t1:
   416                           	callstack 0
   417                           
   418                           ; 4 bytes @ 0x80
   419  000180                     	ds	4
   420  000184                     powf@hy:
   421                           	callstack 0
   422                           
   423                           ; 4 bytes @ 0x84
   424  000184                     	ds	4
   425  000188                     powf@sn:
   426                           	callstack 0
   427                           
   428                           ; 4 bytes @ 0x88
   429  000188                     	ds	4
   430  00018C                     powf@s2:
   431                           	callstack 0
   432                           
   433                           ; 4 bytes @ 0x8C
   434  00018C                     	ds	4
   435  000190                     powf@is:
   436                           	callstack 0
   437                           
   438                           ; 4 bytes @ 0x90
   439  000190                     	ds	4
   440  000194                     _powf$962:
   441                           	callstack 0
   442                           
   443                           ; 4 bytes @ 0x94
   444  000194                     	ds	4
   445  000198                     powf@iy:
   446                           	callstack 0
   447                           
   448                           ; 4 bytes @ 0x98
   449  000198                     	ds	4
   450  00019C                     powf@p_h:
   451                           	callstack 0
   452                           
   453                           ; 4 bytes @ 0x9C
   454  00019C                     	ds	4
   455  0001A0                     powf@k:
   456                           	callstack 0
   457                           
   458                           ; 4 bytes @ 0xA0
   459  0001A0                     	ds	4
   460  0001A4                     _powf$959:
   461                           	callstack 0
   462                           
   463                           ; 4 bytes @ 0xA4
   464  0001A4                     	ds	4
   465  0001A8                     powf@ix:
   466                           	callstack 0
   467                           
   468                           ; 4 bytes @ 0xA8
   469  0001A8                     	ds	4
   470  0001AC                     powf@j:
   471                           	callstack 0
   472                           
   473                           ; 4 bytes @ 0xAC
   474  0001AC                     	ds	4
   475  0001B0                     powf@t:
   476                           	callstack 0
   477                           
   478                           ; 4 bytes @ 0xB0
   479  0001B0                     	ds	4
   480  0001B4                     powf@z:
   481                           	callstack 0
   482                           
   483                           ; 4 bytes @ 0xB4
   484  0001B4                     	ds	4
   485  0001B8                     powf@__xc8_float_word:
   486                           	callstack 0
   487                           
   488                           ; 4 bytes @ 0xB8
   489  0001B8                     	ds	4
   490                           
   491                           	psect	cstackBANK0
   492  000060                     __pcstackBANK0:
   493                           	callstack 0
   494  000060                     sqrtf@s:
   495                           	callstack 0
   496                           
   497                           ; 4 bytes @ 0x0
   498  000060                     	ds	4
   499  000064                     sqrtf@i:
   500                           	callstack 0
   501                           
   502                           ; 4 bytes @ 0x4
   503  000064                     	ds	4
   504  000068                     sqrtf@__xc8_float_word:
   505                           	callstack 0
   506                           
   507                           ; 4 bytes @ 0x8
   508  000068                     	ds	4
   509  00006C                     sqrtf@q:
   510                           	callstack 0
   511                           
   512                           ; 4 bytes @ 0xC
   513  00006C                     	ds	4
   514  000070                     sqrtf@t:
   515                           	callstack 0
   516                           
   517                           ; 4 bytes @ 0x10
   518  000070                     	ds	4
   519  000074                     sqrtf@z:
   520                           	callstack 0
   521                           
   522                           ; 4 bytes @ 0x14
   523  000074                     	ds	4
   524  000078                     sqrtf@m:
   525                           	callstack 0
   526                           
   527                           ; 4 bytes @ 0x18
   528  000078                     	ds	4
   529  00007C                     sqrtf@r:
   530                           	callstack 0
   531                           
   532                           ; 4 bytes @ 0x1C
   533  00007C                     	ds	4
   534  000080                     sqrtf@ix:
   535                           	callstack 0
   536                           
   537                           ; 4 bytes @ 0x20
   538  000080                     	ds	4
   539  000084                     ?_powf:
   540                           	callstack 0
   541  000084                     powf@x:
   542                           	callstack 0
   543                           
   544                           ; 4 bytes @ 0x24
   545  000084                     	ds	4
   546  000088                     powf@y:
   547                           	callstack 0
   548                           
   549                           ; 4 bytes @ 0x28
   550  000088                     	ds	4
   551  00008C                     ?___fltol:
   552                           	callstack 0
   553  00008C                     ___fltol@f1:
   554                           	callstack 0
   555                           
   556                           ; 4 bytes @ 0x2C
   557  00008C                     	ds	4
   558  000090                     send_to_disp@disp_word:
   559                           	callstack 0
   560                           
   561                           ; 4 bytes @ 0x30
   562  000090                     	ds	4
   563  000094                     _send_to_disp$958:
   564                           	callstack 0
   565                           
   566                           ; 4 bytes @ 0x34
   567  000094                     	ds	4
   568  000098                     send_to_disp@internal_sweep:
   569                           	callstack 0
   570                           
   571                           ; 2 bytes @ 0x38
   572  000098                     	ds	2
   573  00009A                     send_to_disp@sweep:
   574                           	callstack 0
   575                           
   576                           ; 2 bytes @ 0x3A
   577  00009A                     	ds	2
   578  00009C                     send_to_disp@num_disp:
   579                           	callstack 0
   580                           
   581                           ; 1 bytes @ 0x3C
   582  00009C                     	ds	1
   583  00009D                     send_to_disp@i:
   584                           	callstack 0
   585                           
   586                           ; 1 bytes @ 0x3D
   587  00009D                     	ds	1
   588  00009E                     ??_main:
   589                           
   590                           ; 1 bytes @ 0x3E
   591  00009E                     	ds	4
   592                           
   593                           	psect	cstackCOMRAM
   594  000001                     __pcstackCOMRAM:
   595                           	callstack 0
   596  000001                     ??_key_scanner:
   597  000001                     ??_char_to_seg:
   598  000001                     ?___fladd:
   599                           	callstack 0
   600  000001                     ?_fabsf:
   601                           	callstack 0
   602  000001                     ?_nanf:
   603                           	callstack 0
   604  000001                     ?___flneg:
   605                           	callstack 0
   606  000001                     ?___xxtofl:
   607                           	callstack 0
   608  000001                     nanf@s:
   609                           	callstack 0
   610  000001                     ___flneg@f1:
   611                           	callstack 0
   612  000001                     ___fladd@b:
   613                           	callstack 0
   614  000001                     ___xxtofl@val:
   615                           	callstack 0
   616  000001                     fabsf@x:
   617                           	callstack 0
   618                           
   619                           ; 4 bytes @ 0x0
   620  000001                     	ds	2
   621  000003                     char_to_seg@num:
   622                           	callstack 0
   623                           
   624                           ; 1 bytes @ 0x2
   625  000003                     	ds	1
   626  000004                     char_to_seg@segments:
   627                           	callstack 0
   628                           
   629                           ; 1 bytes @ 0x3
   630  000004                     	ds	1
   631  000005                     ??___xxtofl:
   632  000005                     ___fladd@a:
   633                           	callstack 0
   634  000005                     fabsf@u:
   635                           	callstack 0
   636  000005                     nanf@u:
   637                           	callstack 0
   638                           
   639                           ; 4 bytes @ 0x4
   640  000005                     	ds	4
   641  000009                     ??___fladd:
   642  000009                     ___xxtofl@sign:
   643                           	callstack 0
   644                           
   645                           ; 1 bytes @ 0x8
   646  000009                     	ds	1
   647  00000A                     ___xxtofl@exp:
   648                           	callstack 0
   649                           
   650                           ; 1 bytes @ 0x9
   651  00000A                     	ds	1
   652  00000B                     ___xxtofl@arg:
   653                           	callstack 0
   654                           
   655                           ; 4 bytes @ 0xA
   656  00000B                     	ds	2
   657  00000D                     ___fladd@signs:
   658                           	callstack 0
   659                           
   660                           ; 1 bytes @ 0xC
   661  00000D                     	ds	1
   662  00000E                     ___fladd@aexp:
   663                           	callstack 0
   664                           
   665                           ; 1 bytes @ 0xD
   666  00000E                     	ds	1
   667  00000F                     ___fladd@bexp:
   668                           	callstack 0
   669                           
   670                           ; 1 bytes @ 0xE
   671  00000F                     	ds	1
   672  000010                     ___fladd@grs:
   673                           	callstack 0
   674                           
   675                           ; 1 bytes @ 0xF
   676  000010                     	ds	1
   677  000011                     ?___flmul:
   678                           	callstack 0
   679  000011                     ___flmul@b:
   680                           	callstack 0
   681                           
   682                           ; 4 bytes @ 0x10
   683  000011                     	ds	4
   684  000015                     ___flmul@a:
   685                           	callstack 0
   686                           
   687                           ; 4 bytes @ 0x14
   688  000015                     	ds	4
   689  000019                     ??___flmul:
   690                           
   691                           ; 1 bytes @ 0x18
   692  000019                     	ds	4
   693  00001D                     ___flmul@sign:
   694                           	callstack 0
   695                           
   696                           ; 1 bytes @ 0x1C
   697  00001D                     	ds	1
   698  00001E                     ___flmul@grs:
   699                           	callstack 0
   700                           
   701                           ; 4 bytes @ 0x1D
   702  00001E                     	ds	4
   703  000022                     ___flmul@aexp:
   704                           	callstack 0
   705                           
   706                           ; 1 bytes @ 0x21
   707  000022                     	ds	1
   708  000023                     ___flmul@bexp:
   709                           	callstack 0
   710                           
   711                           ; 1 bytes @ 0x22
   712  000023                     	ds	1
   713  000024                     ___flmul@prod:
   714                           	callstack 0
   715                           
   716                           ; 4 bytes @ 0x23
   717  000024                     	ds	4
   718  000028                     ___flmul@temp:
   719                           	callstack 0
   720                           
   721                           ; 2 bytes @ 0x27
   722  000028                     	ds	2
   723  00002A                     ?___flsub:
   724                           	callstack 0
   725  00002A                     ?_scalbnf:
   726                           	callstack 0
   727  00002A                     ___flsub@b:
   728                           	callstack 0
   729  00002A                     scalbnf@x:
   730                           	callstack 0
   731                           
   732                           ; 4 bytes @ 0x29
   733  00002A                     	ds	4
   734  00002E                     scalbnf@n:
   735                           	callstack 0
   736  00002E                     ___flsub@a:
   737                           	callstack 0
   738                           
   739                           ; 4 bytes @ 0x2D
   740  00002E                     	ds	2
   741  000030                     ??_scalbnf:
   742                           
   743                           ; 1 bytes @ 0x2F
   744  000030                     	ds	2
   745  000032                     ?___fldiv:
   746                           	callstack 0
   747  000032                     ___flge@ff1:
   748                           	callstack 0
   749  000032                     ___fldiv@b:
   750                           	callstack 0
   751                           
   752                           ; 4 bytes @ 0x31
   753  000032                     	ds	2
   754  000034                     scalbnf@u:
   755                           	callstack 0
   756                           
   757                           ; 4 bytes @ 0x33
   758  000034                     	ds	2
   759  000036                     ___flge@ff2:
   760                           	callstack 0
   761  000036                     ___fldiv@a:
   762                           	callstack 0
   763                           
   764                           ; 4 bytes @ 0x35
   765  000036                     	ds	2
   766  000038                     scalbnf@y:
   767                           	callstack 0
   768                           
   769                           ; 4 bytes @ 0x37
   770  000038                     	ds	2
   771  00003A                     ??___fldiv:
   772  00003A                     ??___flge:
   773                           
   774                           ; 1 bytes @ 0x39
   775  00003A                     	ds	4
   776  00003E                     ?_sqrtf:
   777                           	callstack 0
   778  00003E                     ___fldiv@rem:
   779                           	callstack 0
   780  00003E                     sqrtf@x:
   781                           	callstack 0
   782                           
   783                           ; 4 bytes @ 0x3D
   784  00003E                     	ds	4
   785  000042                     ??_sqrtf:
   786  000042                     ___fldiv@sign:
   787                           	callstack 0
   788                           
   789                           ; 1 bytes @ 0x41
   790  000042                     	ds	1
   791  000043                     ___fldiv@new_exp:
   792                           	callstack 0
   793                           
   794                           ; 2 bytes @ 0x42
   795  000043                     	ds	2
   796  000045                     ___fldiv@grs:
   797                           	callstack 0
   798                           
   799                           ; 4 bytes @ 0x44
   800  000045                     	ds	4
   801  000049                     ___fldiv@bexp:
   802                           	callstack 0
   803                           
   804                           ; 1 bytes @ 0x48
   805  000049                     	ds	1
   806  00004A                     ___fldiv@aexp:
   807                           	callstack 0
   808                           
   809                           ; 1 bytes @ 0x49
   810  00004A                     	ds	1
   811  00004B                     ??_powf:
   812                           
   813                           ; 1 bytes @ 0x4A
   814  00004B                     	ds	9
   815  000054                     ??___fltol:
   816                           
   817                           ; 1 bytes @ 0x53
   818  000054                     	ds	4
   819  000058                     ___fltol@sign1:
   820                           	callstack 0
   821                           
   822                           ; 1 bytes @ 0x57
   823  000058                     	ds	1
   824  000059                     ___fltol@exp1:
   825                           	callstack 0
   826                           
   827                           ; 1 bytes @ 0x58
   828  000059                     	ds	1
   829  00005A                     ??_send_to_disp:
   830                           
   831                           ; 1 bytes @ 0x59
   832  00005A                     	ds	4
   833  00005E                     main@key:
   834                           	callstack 0
   835                           
   836                           ; 1 bytes @ 0x5D
   837  00005E                     	ds	1
   838                           
   839 ;;
   840 ;;Main: autosize = 0, tempsize = 4, incstack = 0, save=0
   841 ;;
   842 ;; *************** function _main *****************
   843 ;; Defined at:
   844 ;;		line 25 in file "main.c"
   845 ;; Parameters:    Size  Location     Type
   846 ;;		None
   847 ;; Auto vars:     Size  Location     Type
   848 ;;  key             1   93[COMRAM] unsigned char 
   849 ;; Return value:  Size  Location     Type
   850 ;;                  1    wreg      void 
   851 ;; Registers used:
   852 ;;		wreg, status,2, status,0, tblptrl, tblptrh, tblptru, prodl, prodh, cstack
   853 ;; Tracked objects:
   854 ;;		On entry : 0/0
   855 ;;		On exit  : 0/0
   856 ;;		Unchanged: 0/0
   857 ;; Data sizes:     COMRAM   BANK0   BANK1   BANK2   BANK3   BANK4   BANK5   BANK6   BANK7
   858 ;;      Params:         0       0       0       0       0       0       0       0       0
   859 ;;      Locals:         1       0       0       0       0       0       0       0       0
   860 ;;      Temps:          0       4       0       0       0       0       0       0       0
   861 ;;      Totals:         1       4       0       0       0       0       0       0       0
   862 ;;Total ram usage:        5 bytes
   863 ;; Hardware stack levels required when called: 4
   864 ;; This function calls:
   865 ;;		_key_scanner
   866 ;;		_portsInit
   867 ;;		_send_to_disp
   868 ;; This function is called by:
   869 ;;		Startup code after reset
   870 ;; This function uses a non-reentrant model
   871 ;;
   872                           
   873                           	psect	text0
   874  003AF8                     __ptext0:
   875                           	callstack 0
   876  003AF8                     _main:
   877                           	callstack 27
   878  003AF8                     
   879                           ;main.c: 26:     portsInit();
   880  003AF8  EC52  F029         	call	_portsInit	;wreg free
   881  003AFC                     l39:
   882                           
   883                           ;main.c: 28:         static uint32_t num = 0x00000000;;main.c: 29:         char key = ke
      +                          y_scanner();
   884  003AFC  EC9C  F023         	call	_key_scanner	;wreg free
   885  003B00  6E5E               	movwf	main@key^0,c
   886  003B02                     
   887                           ;main.c: 30:         if (key==0){
   888  003B02  505E               	movf	main@key^0,w,c
   889  003B04  A4D8               	btfss	status,2,c
   890  003B06  EF87  F01D         	goto	u4171
   891  003B0A  EF89  F01D         	goto	u4170
   892  003B0E                     u4171:
   893  003B0E  EFA2  F01D         	goto	l3893
   894  003B12                     u4170:
   895  003B12                     
   896                           ;main.c: 31:         num = (num<<8);
   897  003B12  C0A6  F09F         	movff	main@num,??_main+1
   898  003B16  C0A7  F0A0         	movff	main@num+1,??_main+2
   899  003B1A  C0A8  F0A1         	movff	main@num+2,??_main+3
   900  003B1E  0100               	movlb	0	; () banked
   901  003B20  6B9E               	clrf	??_main& (0+255),b
   902  003B22  C09E  F0A6         	movff	??_main,main@num
   903  003B26  C09F  F0A7         	movff	??_main+1,main@num+1
   904  003B2A  C0A0  F0A8         	movff	??_main+2,main@num+2
   905  003B2E  C0A1  F0A9         	movff	??_main+3,main@num+3
   906  003B32                     
   907                           ; BSR set to: 0
   908                           ;main.c: 32:         num = (num | key);}
   909  003B32  51A6               	movf	main@num& (0+255),w,b
   910  003B34  105E               	iorwf	main@key^0,w,c
   911  003B36  6FA6               	movwf	main@num& (0+255),b
   912  003B38  51A7               	movf	(main@num+1)& (0+255),w,b
   913  003B3A  6FA7               	movwf	(main@num+1)& (0+255),b
   914  003B3C  51A8               	movf	(main@num+2)& (0+255),w,b
   915  003B3E  6FA8               	movwf	(main@num+2)& (0+255),b
   916  003B40  51A9               	movf	(main@num+3)& (0+255),w,b
   917  003B42  6FA9               	movwf	(main@num+3)& (0+255),b
   918  003B44                     l3893:
   919                           
   920                           ;main.c: 33:         if (key==1){
   921  003B44  045E               	decf	main@key^0,w,c
   922  003B46  A4D8               	btfss	status,2,c
   923  003B48  EFA8  F01D         	goto	u4181
   924  003B4C  EFAA  F01D         	goto	u4180
   925  003B50                     u4181:
   926  003B50  EFC3  F01D         	goto	l3899
   927  003B54                     u4180:
   928  003B54                     
   929                           ;main.c: 34:         num = (num<<8);
   930  003B54  C0A6  F09F         	movff	main@num,??_main+1
   931  003B58  C0A7  F0A0         	movff	main@num+1,??_main+2
   932  003B5C  C0A8  F0A1         	movff	main@num+2,??_main+3
   933  003B60  0100               	movlb	0	; () banked
   934  003B62  6B9E               	clrf	??_main& (0+255),b
   935  003B64  C09E  F0A6         	movff	??_main,main@num
   936  003B68  C09F  F0A7         	movff	??_main+1,main@num+1
   937  003B6C  C0A0  F0A8         	movff	??_main+2,main@num+2
   938  003B70  C0A1  F0A9         	movff	??_main+3,main@num+3
   939  003B74                     
   940                           ; BSR set to: 0
   941                           ;main.c: 35:         num = (num | key);}
   942  003B74  51A6               	movf	main@num& (0+255),w,b
   943  003B76  105E               	iorwf	main@key^0,w,c
   944  003B78  6FA6               	movwf	main@num& (0+255),b
   945  003B7A  51A7               	movf	(main@num+1)& (0+255),w,b
   946  003B7C  6FA7               	movwf	(main@num+1)& (0+255),b
   947  003B7E  51A8               	movf	(main@num+2)& (0+255),w,b
   948  003B80  6FA8               	movwf	(main@num+2)& (0+255),b
   949  003B82  51A9               	movf	(main@num+3)& (0+255),w,b
   950  003B84  6FA9               	movwf	(main@num+3)& (0+255),b
   951  003B86                     l3899:
   952                           
   953                           ;main.c: 36:         if (key==2){
   954  003B86  0E02               	movlw	2
   955  003B88  185E               	xorwf	main@key^0,w,c
   956  003B8A  A4D8               	btfss	status,2,c
   957  003B8C  EFCA  F01D         	goto	u4191
   958  003B90  EFCC  F01D         	goto	u4190
   959  003B94                     u4191:
   960  003B94  EFE5  F01D         	goto	l3905
   961  003B98                     u4190:
   962  003B98                     
   963                           ;main.c: 37:         num = (num<<8);
   964  003B98  C0A6  F09F         	movff	main@num,??_main+1
   965  003B9C  C0A7  F0A0         	movff	main@num+1,??_main+2
   966  003BA0  C0A8  F0A1         	movff	main@num+2,??_main+3
   967  003BA4  0100               	movlb	0	; () banked
   968  003BA6  6B9E               	clrf	??_main& (0+255),b
   969  003BA8  C09E  F0A6         	movff	??_main,main@num
   970  003BAC  C09F  F0A7         	movff	??_main+1,main@num+1
   971  003BB0  C0A0  F0A8         	movff	??_main+2,main@num+2
   972  003BB4  C0A1  F0A9         	movff	??_main+3,main@num+3
   973  003BB8                     
   974                           ; BSR set to: 0
   975                           ;main.c: 38:         num = (num | key);}
   976  003BB8  51A6               	movf	main@num& (0+255),w,b
   977  003BBA  105E               	iorwf	main@key^0,w,c
   978  003BBC  6FA6               	movwf	main@num& (0+255),b
   979  003BBE  51A7               	movf	(main@num+1)& (0+255),w,b
   980  003BC0  6FA7               	movwf	(main@num+1)& (0+255),b
   981  003BC2  51A8               	movf	(main@num+2)& (0+255),w,b
   982  003BC4  6FA8               	movwf	(main@num+2)& (0+255),b
   983  003BC6  51A9               	movf	(main@num+3)& (0+255),w,b
   984  003BC8  6FA9               	movwf	(main@num+3)& (0+255),b
   985  003BCA                     l3905:
   986                           
   987                           ;main.c: 39:         if (key==3){
   988  003BCA  0E03               	movlw	3
   989  003BCC  185E               	xorwf	main@key^0,w,c
   990  003BCE  A4D8               	btfss	status,2,c
   991  003BD0  EFEC  F01D         	goto	u4201
   992  003BD4  EFEE  F01D         	goto	u4200
   993  003BD8                     u4201:
   994  003BD8  EF07  F01E         	goto	l3911
   995  003BDC                     u4200:
   996  003BDC                     
   997                           ;main.c: 40:         num = (num<<8);
   998  003BDC  C0A6  F09F         	movff	main@num,??_main+1
   999  003BE0  C0A7  F0A0         	movff	main@num+1,??_main+2
  1000  003BE4  C0A8  F0A1         	movff	main@num+2,??_main+3
  1001  003BE8  0100               	movlb	0	; () banked
  1002  003BEA  6B9E               	clrf	??_main& (0+255),b
  1003  003BEC  C09E  F0A6         	movff	??_main,main@num
  1004  003BF0  C09F  F0A7         	movff	??_main+1,main@num+1
  1005  003BF4  C0A0  F0A8         	movff	??_main+2,main@num+2
  1006  003BF8  C0A1  F0A9         	movff	??_main+3,main@num+3
  1007  003BFC                     
  1008                           ; BSR set to: 0
  1009                           ;main.c: 41:         num = (num | key);}
  1010  003BFC  51A6               	movf	main@num& (0+255),w,b
  1011  003BFE  105E               	iorwf	main@key^0,w,c
  1012  003C00  6FA6               	movwf	main@num& (0+255),b
  1013  003C02  51A7               	movf	(main@num+1)& (0+255),w,b
  1014  003C04  6FA7               	movwf	(main@num+1)& (0+255),b
  1015  003C06  51A8               	movf	(main@num+2)& (0+255),w,b
  1016  003C08  6FA8               	movwf	(main@num+2)& (0+255),b
  1017  003C0A  51A9               	movf	(main@num+3)& (0+255),w,b
  1018  003C0C  6FA9               	movwf	(main@num+3)& (0+255),b
  1019  003C0E                     l3911:
  1020                           
  1021                           ;main.c: 42:         if (key==4){
  1022  003C0E  0E04               	movlw	4
  1023  003C10  185E               	xorwf	main@key^0,w,c
  1024  003C12  A4D8               	btfss	status,2,c
  1025  003C14  EF0E  F01E         	goto	u4211
  1026  003C18  EF10  F01E         	goto	u4210
  1027  003C1C                     u4211:
  1028  003C1C  EF29  F01E         	goto	l3917
  1029  003C20                     u4210:
  1030  003C20                     
  1031                           ;main.c: 43:         num = (num<<8);
  1032  003C20  C0A6  F09F         	movff	main@num,??_main+1
  1033  003C24  C0A7  F0A0         	movff	main@num+1,??_main+2
  1034  003C28  C0A8  F0A1         	movff	main@num+2,??_main+3
  1035  003C2C  0100               	movlb	0	; () banked
  1036  003C2E  6B9E               	clrf	??_main& (0+255),b
  1037  003C30  C09E  F0A6         	movff	??_main,main@num
  1038  003C34  C09F  F0A7         	movff	??_main+1,main@num+1
  1039  003C38  C0A0  F0A8         	movff	??_main+2,main@num+2
  1040  003C3C  C0A1  F0A9         	movff	??_main+3,main@num+3
  1041  003C40                     
  1042                           ; BSR set to: 0
  1043                           ;main.c: 44:         num = (num | key);}
  1044  003C40  51A6               	movf	main@num& (0+255),w,b
  1045  003C42  105E               	iorwf	main@key^0,w,c
  1046  003C44  6FA6               	movwf	main@num& (0+255),b
  1047  003C46  51A7               	movf	(main@num+1)& (0+255),w,b
  1048  003C48  6FA7               	movwf	(main@num+1)& (0+255),b
  1049  003C4A  51A8               	movf	(main@num+2)& (0+255),w,b
  1050  003C4C  6FA8               	movwf	(main@num+2)& (0+255),b
  1051  003C4E  51A9               	movf	(main@num+3)& (0+255),w,b
  1052  003C50  6FA9               	movwf	(main@num+3)& (0+255),b
  1053  003C52                     l3917:
  1054                           
  1055                           ;main.c: 45:         if (key==5){
  1056  003C52  0E05               	movlw	5
  1057  003C54  185E               	xorwf	main@key^0,w,c
  1058  003C56  A4D8               	btfss	status,2,c
  1059  003C58  EF30  F01E         	goto	u4221
  1060  003C5C  EF32  F01E         	goto	u4220
  1061  003C60                     u4221:
  1062  003C60  EF4B  F01E         	goto	l3923
  1063  003C64                     u4220:
  1064  003C64                     
  1065                           ;main.c: 46:         num = (num<<8);
  1066  003C64  C0A6  F09F         	movff	main@num,??_main+1
  1067  003C68  C0A7  F0A0         	movff	main@num+1,??_main+2
  1068  003C6C  C0A8  F0A1         	movff	main@num+2,??_main+3
  1069  003C70  0100               	movlb	0	; () banked
  1070  003C72  6B9E               	clrf	??_main& (0+255),b
  1071  003C74  C09E  F0A6         	movff	??_main,main@num
  1072  003C78  C09F  F0A7         	movff	??_main+1,main@num+1
  1073  003C7C  C0A0  F0A8         	movff	??_main+2,main@num+2
  1074  003C80  C0A1  F0A9         	movff	??_main+3,main@num+3
  1075  003C84                     
  1076                           ; BSR set to: 0
  1077                           ;main.c: 47:         num = (num | key);}
  1078  003C84  51A6               	movf	main@num& (0+255),w,b
  1079  003C86  105E               	iorwf	main@key^0,w,c
  1080  003C88  6FA6               	movwf	main@num& (0+255),b
  1081  003C8A  51A7               	movf	(main@num+1)& (0+255),w,b
  1082  003C8C  6FA7               	movwf	(main@num+1)& (0+255),b
  1083  003C8E  51A8               	movf	(main@num+2)& (0+255),w,b
  1084  003C90  6FA8               	movwf	(main@num+2)& (0+255),b
  1085  003C92  51A9               	movf	(main@num+3)& (0+255),w,b
  1086  003C94  6FA9               	movwf	(main@num+3)& (0+255),b
  1087  003C96                     l3923:
  1088                           
  1089                           ;main.c: 48:         if (key==6){
  1090  003C96  0E06               	movlw	6
  1091  003C98  185E               	xorwf	main@key^0,w,c
  1092  003C9A  A4D8               	btfss	status,2,c
  1093  003C9C  EF52  F01E         	goto	u4231
  1094  003CA0  EF54  F01E         	goto	u4230
  1095  003CA4                     u4231:
  1096  003CA4  EF6D  F01E         	goto	l3929
  1097  003CA8                     u4230:
  1098  003CA8                     
  1099                           ;main.c: 49:         num = (num<<8);
  1100  003CA8  C0A6  F09F         	movff	main@num,??_main+1
  1101  003CAC  C0A7  F0A0         	movff	main@num+1,??_main+2
  1102  003CB0  C0A8  F0A1         	movff	main@num+2,??_main+3
  1103  003CB4  0100               	movlb	0	; () banked
  1104  003CB6  6B9E               	clrf	??_main& (0+255),b
  1105  003CB8  C09E  F0A6         	movff	??_main,main@num
  1106  003CBC  C09F  F0A7         	movff	??_main+1,main@num+1
  1107  003CC0  C0A0  F0A8         	movff	??_main+2,main@num+2
  1108  003CC4  C0A1  F0A9         	movff	??_main+3,main@num+3
  1109  003CC8                     
  1110                           ; BSR set to: 0
  1111                           ;main.c: 50:         num = (num | key);}
  1112  003CC8  51A6               	movf	main@num& (0+255),w,b
  1113  003CCA  105E               	iorwf	main@key^0,w,c
  1114  003CCC  6FA6               	movwf	main@num& (0+255),b
  1115  003CCE  51A7               	movf	(main@num+1)& (0+255),w,b
  1116  003CD0  6FA7               	movwf	(main@num+1)& (0+255),b
  1117  003CD2  51A8               	movf	(main@num+2)& (0+255),w,b
  1118  003CD4  6FA8               	movwf	(main@num+2)& (0+255),b
  1119  003CD6  51A9               	movf	(main@num+3)& (0+255),w,b
  1120  003CD8  6FA9               	movwf	(main@num+3)& (0+255),b
  1121  003CDA                     l3929:
  1122                           
  1123                           ;main.c: 51:         if (key==7){
  1124  003CDA  0E07               	movlw	7
  1125  003CDC  185E               	xorwf	main@key^0,w,c
  1126  003CDE  A4D8               	btfss	status,2,c
  1127  003CE0  EF74  F01E         	goto	u4241
  1128  003CE4  EF76  F01E         	goto	u4240
  1129  003CE8                     u4241:
  1130  003CE8  EF8F  F01E         	goto	l3935
  1131  003CEC                     u4240:
  1132  003CEC                     
  1133                           ;main.c: 52:         num = (num<<8);
  1134  003CEC  C0A6  F09F         	movff	main@num,??_main+1
  1135  003CF0  C0A7  F0A0         	movff	main@num+1,??_main+2
  1136  003CF4  C0A8  F0A1         	movff	main@num+2,??_main+3
  1137  003CF8  0100               	movlb	0	; () banked
  1138  003CFA  6B9E               	clrf	??_main& (0+255),b
  1139  003CFC  C09E  F0A6         	movff	??_main,main@num
  1140  003D00  C09F  F0A7         	movff	??_main+1,main@num+1
  1141  003D04  C0A0  F0A8         	movff	??_main+2,main@num+2
  1142  003D08  C0A1  F0A9         	movff	??_main+3,main@num+3
  1143  003D0C                     
  1144                           ; BSR set to: 0
  1145                           ;main.c: 53:         num = (num | key);}
  1146  003D0C  51A6               	movf	main@num& (0+255),w,b
  1147  003D0E  105E               	iorwf	main@key^0,w,c
  1148  003D10  6FA6               	movwf	main@num& (0+255),b
  1149  003D12  51A7               	movf	(main@num+1)& (0+255),w,b
  1150  003D14  6FA7               	movwf	(main@num+1)& (0+255),b
  1151  003D16  51A8               	movf	(main@num+2)& (0+255),w,b
  1152  003D18  6FA8               	movwf	(main@num+2)& (0+255),b
  1153  003D1A  51A9               	movf	(main@num+3)& (0+255),w,b
  1154  003D1C  6FA9               	movwf	(main@num+3)& (0+255),b
  1155  003D1E                     l3935:
  1156                           
  1157                           ;main.c: 54:         if (key==8){
  1158  003D1E  0E08               	movlw	8
  1159  003D20  185E               	xorwf	main@key^0,w,c
  1160  003D22  A4D8               	btfss	status,2,c
  1161  003D24  EF96  F01E         	goto	u4251
  1162  003D28  EF98  F01E         	goto	u4250
  1163  003D2C                     u4251:
  1164  003D2C  EFB1  F01E         	goto	l3941
  1165  003D30                     u4250:
  1166  003D30                     
  1167                           ;main.c: 55:         num = (num<<8);
  1168  003D30  C0A6  F09F         	movff	main@num,??_main+1
  1169  003D34  C0A7  F0A0         	movff	main@num+1,??_main+2
  1170  003D38  C0A8  F0A1         	movff	main@num+2,??_main+3
  1171  003D3C  0100               	movlb	0	; () banked
  1172  003D3E  6B9E               	clrf	??_main& (0+255),b
  1173  003D40  C09E  F0A6         	movff	??_main,main@num
  1174  003D44  C09F  F0A7         	movff	??_main+1,main@num+1
  1175  003D48  C0A0  F0A8         	movff	??_main+2,main@num+2
  1176  003D4C  C0A1  F0A9         	movff	??_main+3,main@num+3
  1177  003D50                     
  1178                           ; BSR set to: 0
  1179                           ;main.c: 56:         num = (num | key);}
  1180  003D50  51A6               	movf	main@num& (0+255),w,b
  1181  003D52  105E               	iorwf	main@key^0,w,c
  1182  003D54  6FA6               	movwf	main@num& (0+255),b
  1183  003D56  51A7               	movf	(main@num+1)& (0+255),w,b
  1184  003D58  6FA7               	movwf	(main@num+1)& (0+255),b
  1185  003D5A  51A8               	movf	(main@num+2)& (0+255),w,b
  1186  003D5C  6FA8               	movwf	(main@num+2)& (0+255),b
  1187  003D5E  51A9               	movf	(main@num+3)& (0+255),w,b
  1188  003D60  6FA9               	movwf	(main@num+3)& (0+255),b
  1189  003D62                     l3941:
  1190                           
  1191                           ;main.c: 57:         if (key==9){
  1192  003D62  0E09               	movlw	9
  1193  003D64  185E               	xorwf	main@key^0,w,c
  1194  003D66  A4D8               	btfss	status,2,c
  1195  003D68  EFB8  F01E         	goto	u4261
  1196  003D6C  EFBA  F01E         	goto	u4260
  1197  003D70                     u4261:
  1198  003D70  EFD3  F01E         	goto	l3947
  1199  003D74                     u4260:
  1200  003D74                     
  1201                           ;main.c: 58:         num = (num<<8);
  1202  003D74  C0A6  F09F         	movff	main@num,??_main+1
  1203  003D78  C0A7  F0A0         	movff	main@num+1,??_main+2
  1204  003D7C  C0A8  F0A1         	movff	main@num+2,??_main+3
  1205  003D80  0100               	movlb	0	; () banked
  1206  003D82  6B9E               	clrf	??_main& (0+255),b
  1207  003D84  C09E  F0A6         	movff	??_main,main@num
  1208  003D88  C09F  F0A7         	movff	??_main+1,main@num+1
  1209  003D8C  C0A0  F0A8         	movff	??_main+2,main@num+2
  1210  003D90  C0A1  F0A9         	movff	??_main+3,main@num+3
  1211  003D94                     
  1212                           ; BSR set to: 0
  1213                           ;main.c: 59:         num = (num | key);}
  1214  003D94  51A6               	movf	main@num& (0+255),w,b
  1215  003D96  105E               	iorwf	main@key^0,w,c
  1216  003D98  6FA6               	movwf	main@num& (0+255),b
  1217  003D9A  51A7               	movf	(main@num+1)& (0+255),w,b
  1218  003D9C  6FA7               	movwf	(main@num+1)& (0+255),b
  1219  003D9E  51A8               	movf	(main@num+2)& (0+255),w,b
  1220  003DA0  6FA8               	movwf	(main@num+2)& (0+255),b
  1221  003DA2  51A9               	movf	(main@num+3)& (0+255),w,b
  1222  003DA4  6FA9               	movwf	(main@num+3)& (0+255),b
  1223  003DA6                     l3947:
  1224                           
  1225                           ;main.c: 60:         if (key==10){
  1226  003DA6  0E0A               	movlw	10
  1227  003DA8  185E               	xorwf	main@key^0,w,c
  1228  003DAA  A4D8               	btfss	status,2,c
  1229  003DAC  EFDA  F01E         	goto	u4271
  1230  003DB0  EFDC  F01E         	goto	u4270
  1231  003DB4                     u4271:
  1232  003DB4  EFF5  F01E         	goto	l3953
  1233  003DB8                     u4270:
  1234  003DB8                     
  1235                           ;main.c: 61:         num = (num<<8);
  1236  003DB8  C0A6  F09F         	movff	main@num,??_main+1
  1237  003DBC  C0A7  F0A0         	movff	main@num+1,??_main+2
  1238  003DC0  C0A8  F0A1         	movff	main@num+2,??_main+3
  1239  003DC4  0100               	movlb	0	; () banked
  1240  003DC6  6B9E               	clrf	??_main& (0+255),b
  1241  003DC8  C09E  F0A6         	movff	??_main,main@num
  1242  003DCC  C09F  F0A7         	movff	??_main+1,main@num+1
  1243  003DD0  C0A0  F0A8         	movff	??_main+2,main@num+2
  1244  003DD4  C0A1  F0A9         	movff	??_main+3,main@num+3
  1245  003DD8                     
  1246                           ; BSR set to: 0
  1247                           ;main.c: 62:         num = (num | key);}
  1248  003DD8  51A6               	movf	main@num& (0+255),w,b
  1249  003DDA  105E               	iorwf	main@key^0,w,c
  1250  003DDC  6FA6               	movwf	main@num& (0+255),b
  1251  003DDE  51A7               	movf	(main@num+1)& (0+255),w,b
  1252  003DE0  6FA7               	movwf	(main@num+1)& (0+255),b
  1253  003DE2  51A8               	movf	(main@num+2)& (0+255),w,b
  1254  003DE4  6FA8               	movwf	(main@num+2)& (0+255),b
  1255  003DE6  51A9               	movf	(main@num+3)& (0+255),w,b
  1256  003DE8  6FA9               	movwf	(main@num+3)& (0+255),b
  1257  003DEA                     l3953:
  1258                           
  1259                           ;main.c: 63:         if (key==11){
  1260  003DEA  0E0B               	movlw	11
  1261  003DEC  185E               	xorwf	main@key^0,w,c
  1262  003DEE  A4D8               	btfss	status,2,c
  1263  003DF0  EFFC  F01E         	goto	u4281
  1264  003DF4  EFFE  F01E         	goto	u4280
  1265  003DF8                     u4281:
  1266  003DF8  EF17  F01F         	goto	l3959
  1267  003DFC                     u4280:
  1268  003DFC                     
  1269                           ;main.c: 64:         num = (num<<8);
  1270  003DFC  C0A6  F09F         	movff	main@num,??_main+1
  1271  003E00  C0A7  F0A0         	movff	main@num+1,??_main+2
  1272  003E04  C0A8  F0A1         	movff	main@num+2,??_main+3
  1273  003E08  0100               	movlb	0	; () banked
  1274  003E0A  6B9E               	clrf	??_main& (0+255),b
  1275  003E0C  C09E  F0A6         	movff	??_main,main@num
  1276  003E10  C09F  F0A7         	movff	??_main+1,main@num+1
  1277  003E14  C0A0  F0A8         	movff	??_main+2,main@num+2
  1278  003E18  C0A1  F0A9         	movff	??_main+3,main@num+3
  1279  003E1C                     
  1280                           ; BSR set to: 0
  1281                           ;main.c: 65:         num = (num | key);}
  1282  003E1C  51A6               	movf	main@num& (0+255),w,b
  1283  003E1E  105E               	iorwf	main@key^0,w,c
  1284  003E20  6FA6               	movwf	main@num& (0+255),b
  1285  003E22  51A7               	movf	(main@num+1)& (0+255),w,b
  1286  003E24  6FA7               	movwf	(main@num+1)& (0+255),b
  1287  003E26  51A8               	movf	(main@num+2)& (0+255),w,b
  1288  003E28  6FA8               	movwf	(main@num+2)& (0+255),b
  1289  003E2A  51A9               	movf	(main@num+3)& (0+255),w,b
  1290  003E2C  6FA9               	movwf	(main@num+3)& (0+255),b
  1291  003E2E                     l3959:
  1292                           
  1293                           ;main.c: 66:         if (key==12){
  1294  003E2E  0E0C               	movlw	12
  1295  003E30  185E               	xorwf	main@key^0,w,c
  1296  003E32  A4D8               	btfss	status,2,c
  1297  003E34  EF1E  F01F         	goto	u4291
  1298  003E38  EF20  F01F         	goto	u4290
  1299  003E3C                     u4291:
  1300  003E3C  EF39  F01F         	goto	l3965
  1301  003E40                     u4290:
  1302  003E40                     
  1303                           ;main.c: 67:         num = (num<<8);
  1304  003E40  C0A6  F09F         	movff	main@num,??_main+1
  1305  003E44  C0A7  F0A0         	movff	main@num+1,??_main+2
  1306  003E48  C0A8  F0A1         	movff	main@num+2,??_main+3
  1307  003E4C  0100               	movlb	0	; () banked
  1308  003E4E  6B9E               	clrf	??_main& (0+255),b
  1309  003E50  C09E  F0A6         	movff	??_main,main@num
  1310  003E54  C09F  F0A7         	movff	??_main+1,main@num+1
  1311  003E58  C0A0  F0A8         	movff	??_main+2,main@num+2
  1312  003E5C  C0A1  F0A9         	movff	??_main+3,main@num+3
  1313  003E60                     
  1314                           ; BSR set to: 0
  1315                           ;main.c: 68:         num = (num | key);}
  1316  003E60  51A6               	movf	main@num& (0+255),w,b
  1317  003E62  105E               	iorwf	main@key^0,w,c
  1318  003E64  6FA6               	movwf	main@num& (0+255),b
  1319  003E66  51A7               	movf	(main@num+1)& (0+255),w,b
  1320  003E68  6FA7               	movwf	(main@num+1)& (0+255),b
  1321  003E6A  51A8               	movf	(main@num+2)& (0+255),w,b
  1322  003E6C  6FA8               	movwf	(main@num+2)& (0+255),b
  1323  003E6E  51A9               	movf	(main@num+3)& (0+255),w,b
  1324  003E70  6FA9               	movwf	(main@num+3)& (0+255),b
  1325  003E72                     l3965:
  1326                           
  1327                           ;main.c: 69:         if (key==13){
  1328  003E72  0E0D               	movlw	13
  1329  003E74  185E               	xorwf	main@key^0,w,c
  1330  003E76  A4D8               	btfss	status,2,c
  1331  003E78  EF40  F01F         	goto	u4301
  1332  003E7C  EF42  F01F         	goto	u4300
  1333  003E80                     u4301:
  1334  003E80  EF5B  F01F         	goto	l3971
  1335  003E84                     u4300:
  1336  003E84                     
  1337                           ;main.c: 70:         num = (num<<8);
  1338  003E84  C0A6  F09F         	movff	main@num,??_main+1
  1339  003E88  C0A7  F0A0         	movff	main@num+1,??_main+2
  1340  003E8C  C0A8  F0A1         	movff	main@num+2,??_main+3
  1341  003E90  0100               	movlb	0	; () banked
  1342  003E92  6B9E               	clrf	??_main& (0+255),b
  1343  003E94  C09E  F0A6         	movff	??_main,main@num
  1344  003E98  C09F  F0A7         	movff	??_main+1,main@num+1
  1345  003E9C  C0A0  F0A8         	movff	??_main+2,main@num+2
  1346  003EA0  C0A1  F0A9         	movff	??_main+3,main@num+3
  1347  003EA4                     
  1348                           ; BSR set to: 0
  1349                           ;main.c: 71:         num = (num | key);}
  1350  003EA4  51A6               	movf	main@num& (0+255),w,b
  1351  003EA6  105E               	iorwf	main@key^0,w,c
  1352  003EA8  6FA6               	movwf	main@num& (0+255),b
  1353  003EAA  51A7               	movf	(main@num+1)& (0+255),w,b
  1354  003EAC  6FA7               	movwf	(main@num+1)& (0+255),b
  1355  003EAE  51A8               	movf	(main@num+2)& (0+255),w,b
  1356  003EB0  6FA8               	movwf	(main@num+2)& (0+255),b
  1357  003EB2  51A9               	movf	(main@num+3)& (0+255),w,b
  1358  003EB4  6FA9               	movwf	(main@num+3)& (0+255),b
  1359  003EB6                     l3971:
  1360                           
  1361                           ;main.c: 72:         if (key==14){
  1362  003EB6  0E0E               	movlw	14
  1363  003EB8  185E               	xorwf	main@key^0,w,c
  1364  003EBA  A4D8               	btfss	status,2,c
  1365  003EBC  EF62  F01F         	goto	u4311
  1366  003EC0  EF64  F01F         	goto	u4310
  1367  003EC4                     u4311:
  1368  003EC4  EF7D  F01F         	goto	l3977
  1369  003EC8                     u4310:
  1370  003EC8                     
  1371                           ;main.c: 73:         num = (num<<8);
  1372  003EC8  C0A6  F09F         	movff	main@num,??_main+1
  1373  003ECC  C0A7  F0A0         	movff	main@num+1,??_main+2
  1374  003ED0  C0A8  F0A1         	movff	main@num+2,??_main+3
  1375  003ED4  0100               	movlb	0	; () banked
  1376  003ED6  6B9E               	clrf	??_main& (0+255),b
  1377  003ED8  C09E  F0A6         	movff	??_main,main@num
  1378  003EDC  C09F  F0A7         	movff	??_main+1,main@num+1
  1379  003EE0  C0A0  F0A8         	movff	??_main+2,main@num+2
  1380  003EE4  C0A1  F0A9         	movff	??_main+3,main@num+3
  1381  003EE8                     
  1382                           ; BSR set to: 0
  1383                           ;main.c: 74:         num = (num | key);}
  1384  003EE8  51A6               	movf	main@num& (0+255),w,b
  1385  003EEA  105E               	iorwf	main@key^0,w,c
  1386  003EEC  6FA6               	movwf	main@num& (0+255),b
  1387  003EEE  51A7               	movf	(main@num+1)& (0+255),w,b
  1388  003EF0  6FA7               	movwf	(main@num+1)& (0+255),b
  1389  003EF2  51A8               	movf	(main@num+2)& (0+255),w,b
  1390  003EF4  6FA8               	movwf	(main@num+2)& (0+255),b
  1391  003EF6  51A9               	movf	(main@num+3)& (0+255),w,b
  1392  003EF8  6FA9               	movwf	(main@num+3)& (0+255),b
  1393  003EFA                     l3977:
  1394                           
  1395                           ;main.c: 75:         if (key==15){
  1396  003EFA  0E0F               	movlw	15
  1397  003EFC  185E               	xorwf	main@key^0,w,c
  1398  003EFE  A4D8               	btfss	status,2,c
  1399  003F00  EF84  F01F         	goto	u4321
  1400  003F04  EF86  F01F         	goto	u4320
  1401  003F08                     u4321:
  1402  003F08  EF9F  F01F         	goto	l3983
  1403  003F0C                     u4320:
  1404  003F0C                     
  1405                           ;main.c: 76:         num = (num<<8);
  1406  003F0C  C0A6  F09F         	movff	main@num,??_main+1
  1407  003F10  C0A7  F0A0         	movff	main@num+1,??_main+2
  1408  003F14  C0A8  F0A1         	movff	main@num+2,??_main+3
  1409  003F18  0100               	movlb	0	; () banked
  1410  003F1A  6B9E               	clrf	??_main& (0+255),b
  1411  003F1C  C09E  F0A6         	movff	??_main,main@num
  1412  003F20  C09F  F0A7         	movff	??_main+1,main@num+1
  1413  003F24  C0A0  F0A8         	movff	??_main+2,main@num+2
  1414  003F28  C0A1  F0A9         	movff	??_main+3,main@num+3
  1415  003F2C                     
  1416                           ; BSR set to: 0
  1417                           ;main.c: 77:         num = (num | key);}
  1418  003F2C  51A6               	movf	main@num& (0+255),w,b
  1419  003F2E  105E               	iorwf	main@key^0,w,c
  1420  003F30  6FA6               	movwf	main@num& (0+255),b
  1421  003F32  51A7               	movf	(main@num+1)& (0+255),w,b
  1422  003F34  6FA7               	movwf	(main@num+1)& (0+255),b
  1423  003F36  51A8               	movf	(main@num+2)& (0+255),w,b
  1424  003F38  6FA8               	movwf	(main@num+2)& (0+255),b
  1425  003F3A  51A9               	movf	(main@num+3)& (0+255),w,b
  1426  003F3C  6FA9               	movwf	(main@num+3)& (0+255),b
  1427  003F3E                     l3983:
  1428                           
  1429                           ;main.c: 79:         _delay((unsigned long)((300)*(8000000/4000.0)));
  1430  003F3E  0E04               	movlw	4
  1431  003F40  0100               	movlb	0	; () banked
  1432  003F42  6F9F               	movwf	(??_main+1)& (0+255),b
  1433  003F44  0E0C               	movlw	12
  1434  003F46  6F9E               	movwf	??_main& (0+255),b
  1435  003F48  0E33               	movlw	51
  1436  003F4A                     u4337:
  1437  003F4A  2EE8               	decfsz	wreg,f,c
  1438  003F4C  D7FE               	bra	u4337
  1439  003F4E  2F9E               	decfsz	??_main& (0+255),f,b
  1440  003F50  D7FC               	bra	u4337
  1441  003F52  2F9F               	decfsz	(??_main+1)& (0+255),f,b
  1442  003F54  D7FA               	bra	u4337
  1443  003F56  D000               	nop2	
  1444  003F58                     
  1445                           ;main.c: 80:         send_to_disp(num);
  1446  003F58  C0A6  F090         	movff	main@num,send_to_disp@disp_word
  1447  003F5C  C0A7  F091         	movff	main@num+1,send_to_disp@disp_word+1
  1448  003F60  C0A8  F092         	movff	main@num+2,send_to_disp@disp_word+2
  1449  003F64  C0A9  F093         	movff	main@num+3,send_to_disp@disp_word+3
  1450  003F68  EC7A  F028         	call	_send_to_disp	;wreg free
  1451  003F6C  EF7E  F01D         	goto	l39
  1452  003F70  EF00  F000         	goto	start
  1453  003F74                     __end_of_main:
  1454                           	callstack 0
  1455                           
  1456 ;; *************** function _send_to_disp *****************
  1457 ;; Defined at:
  1458 ;;		line 136 in file "main.c"
  1459 ;; Parameters:    Size  Location     Type
  1460 ;;  disp_word       4   48[BANK0 ] unsigned long 
  1461 ;; Auto vars:     Size  Location     Type
  1462 ;;  sweep           2   58[BANK0 ] int 
  1463 ;;  internal_swe    2   56[BANK0 ] int 
  1464 ;;  num_disp        1   60[BANK0 ] unsigned char 
  1465 ;;  i               1   61[BANK0 ] unsigned char 
  1466 ;; Return value:  Size  Location     Type
  1467 ;;                  1    wreg      void 
  1468 ;; Registers used:
  1469 ;;		wreg, status,2, status,0, tblptrl, tblptrh, tblptru, prodl, prodh, cstack
  1470 ;; Tracked objects:
  1471 ;;		On entry : 0/0
  1472 ;;		On exit  : 0/0
  1473 ;;		Unchanged: 0/0
  1474 ;; Data sizes:     COMRAM   BANK0   BANK1   BANK2   BANK3   BANK4   BANK5   BANK6   BANK7
  1475 ;;      Params:         0       4       0       0       0       0       0       0       0
  1476 ;;      Locals:         0      10       0       0       0       0       0       0       0
  1477 ;;      Temps:          4       0       0       0       0       0       0       0       0
  1478 ;;      Totals:         4      14       0       0       0       0       0       0       0
  1479 ;;Total ram usage:       18 bytes
  1480 ;; Hardware stack levels used: 1
  1481 ;; Hardware stack levels required when called: 3
  1482 ;; This function calls:
  1483 ;;		___fltol
  1484 ;;		___xxtofl
  1485 ;;		_char_to_seg
  1486 ;;		_powf
  1487 ;; This function is called by:
  1488 ;;		_main
  1489 ;; This function uses a non-reentrant model
  1490 ;;
  1491                           
  1492                           	psect	text1
  1493  0050F4                     __ptext1:
  1494                           	callstack 0
  1495  0050F4                     _send_to_disp:
  1496                           	callstack 27
  1497  0050F4                     
  1498                           ;main.c: 137:     for (char i = 0; i < 4; i++){
  1499  0050F4  0E00               	movlw	0
  1500  0050F6  0100               	movlb	0	; () banked
  1501  0050F8  6F9D               	movwf	send_to_disp@i& (0+255),b
  1502  0050FA                     l3867:
  1503                           
  1504                           ; BSR set to: 0
  1505                           ;main.c: 138:         int internal_sweep = (int) powf(2,i);
  1506  0050FA  519D               	movf	send_to_disp@i& (0+255),w,b
  1507  0050FC  6E01               	movwf	___xxtofl@val^0,c
  1508  0050FE  6A02               	clrf	(___xxtofl@val+1)^0,c
  1509  005100  6A03               	clrf	(___xxtofl@val+2)^0,c
  1510  005102  6A04               	clrf	(___xxtofl@val+3)^0,c
  1511  005104  0E00               	movlw	0
  1512  005106  EC08  F026         	call	___xxtofl
  1513  00510A  C001  F094         	movff	?___xxtofl,_send_to_disp$958
  1514  00510E  C002  F095         	movff	?___xxtofl+1,_send_to_disp$958+1
  1515  005112  C003  F096         	movff	?___xxtofl+2,_send_to_disp$958+2
  1516  005116  C004  F097         	movff	?___xxtofl+3,_send_to_disp$958+3
  1517  00511A                     
  1518                           ;main.c: 138:         int internal_sweep = (int) powf(2,i);
  1519  00511A  C094  F088         	movff	_send_to_disp$958,powf@y
  1520  00511E  C095  F089         	movff	_send_to_disp$958+1,powf@y+1
  1521  005122  C096  F08A         	movff	_send_to_disp$958+2,powf@y+2
  1522  005126  C097  F08B         	movff	_send_to_disp$958+3,powf@y+3
  1523  00512A  0E00               	movlw	0
  1524  00512C  0100               	movlb	0	; () banked
  1525  00512E  6F84               	movwf	powf@x& (0+255),b
  1526  005130  0E00               	movlw	0
  1527  005132  6F85               	movwf	(powf@x+1)& (0+255),b
  1528  005134  0E00               	movlw	0
  1529  005136  6F86               	movwf	(powf@x+2)& (0+255),b
  1530  005138  0E40               	movlw	64
  1531  00513A  6F87               	movwf	(powf@x+3)& (0+255),b
  1532  00513C  EC40  F004         	call	_powf	;wreg free
  1533  005140  C084  F08C         	movff	?_powf,___fltol@f1
  1534  005144  C085  F08D         	movff	?_powf+1,___fltol@f1+1
  1535  005148  C086  F08E         	movff	?_powf+2,___fltol@f1+2
  1536  00514C  C087  F08F         	movff	?_powf+3,___fltol@f1+3
  1537  005150  EC74  F027         	call	___fltol	;wreg free
  1538  005154  C08C  F098         	movff	?___fltol,send_to_disp@internal_sweep
  1539  005158  C08D  F099         	movff	?___fltol+1,send_to_disp@internal_sweep+1
  1540  00515C                     
  1541                           ;main.c: 139:         int sweep = 0x0F & ~internal_sweep;
  1542  00515C  0100               	movlb	0	; () banked
  1543  00515E  1D98               	comf	send_to_disp@internal_sweep& (0+255),w,b
  1544  005160  6E5A               	movwf	??_send_to_disp^0,c
  1545  005162  1D99               	comf	(send_to_disp@internal_sweep+1)& (0+255),w,b
  1546  005164  6E5B               	movwf	(??_send_to_disp+1)^0,c
  1547  005166  0E0F               	movlw	15
  1548  005168  145A               	andwf	??_send_to_disp^0,w,c
  1549  00516A  6F9A               	movwf	send_to_disp@sweep& (0+255),b
  1550  00516C  6B9B               	clrf	(send_to_disp@sweep+1)& (0+255),b
  1551  00516E                     
  1552                           ; BSR set to: 0
  1553                           ;main.c: 140:         LATB = (char) sweep;
  1554  00516E  C09A  FF8A         	movff	send_to_disp@sweep,3978	;volatile
  1555  005172                     
  1556                           ; BSR set to: 0
  1557                           ;main.c: 141:         uint8_t num_disp = 0x000000FF & (disp_word >> i*8);
  1558  005172  519D               	movf	send_to_disp@i& (0+255),w,b
  1559  005174  0D08               	mullw	8
  1560  005176  50F3               	movf	243,w,c
  1561  005178  C090  F05A         	movff	send_to_disp@disp_word,??_send_to_disp
  1562  00517C  C091  F05B         	movff	send_to_disp@disp_word+1,??_send_to_disp+1
  1563  005180  C092  F05C         	movff	send_to_disp@disp_word+2,??_send_to_disp+2
  1564  005184  C093  F05D         	movff	send_to_disp@disp_word+3,??_send_to_disp+3
  1565  005188  2AE8               	incf	wreg,f,c
  1566  00518A  EFCC  F028         	goto	u4150
  1567  00518E                     u4155:
  1568  00518E  90D8               	bcf	status,0,c
  1569  005190  325D               	rrcf	(??_send_to_disp+3)^0,f,c
  1570  005192  325C               	rrcf	(??_send_to_disp+2)^0,f,c
  1571  005194  325B               	rrcf	(??_send_to_disp+1)^0,f,c
  1572  005196  325A               	rrcf	??_send_to_disp^0,f,c
  1573  005198                     u4150:
  1574  005198  2EE8               	decfsz	wreg,f,c
  1575  00519A  EFC7  F028         	goto	u4155
  1576  00519E  505A               	movf	??_send_to_disp^0,w,c
  1577  0051A0  6F9C               	movwf	send_to_disp@num_disp& (0+255),b
  1578  0051A2                     
  1579                           ; BSR set to: 0
  1580                           ;main.c: 142:         LATD = char_to_seg(num_disp);
  1581  0051A2  519C               	movf	send_to_disp@num_disp& (0+255),w,b
  1582  0051A4  ECE2  F026         	call	_char_to_seg
  1583  0051A8  6E8C               	movwf	140,c	;volatile
  1584  0051AA                     
  1585                           ;main.c: 143:         _delay((unsigned long)((10)*(8000000/4000.0)));
  1586  0051AA  0E1A               	movlw	26
  1587  0051AC  6E5A               	movwf	??_send_to_disp^0,c
  1588  0051AE  0EF8               	movlw	248
  1589  0051B0                     u4347:
  1590  0051B0  2EE8               	decfsz	wreg,f,c
  1591  0051B2  D7FE               	bra	u4347
  1592  0051B4  2E5A               	decfsz	??_send_to_disp^0,f,c
  1593  0051B6  D7FC               	bra	u4347
  1594  0051B8  D000               	nop2	
  1595  0051BA                     
  1596                           ;main.c: 144:     }
  1597  0051BA  0100               	movlb	0	; () banked
  1598  0051BC  2B9D               	incf	send_to_disp@i& (0+255),f,b
  1599  0051BE                     
  1600                           ; BSR set to: 0
  1601  0051BE  0E03               	movlw	3
  1602  0051C0  659D               	cpfsgt	send_to_disp@i& (0+255),b
  1603  0051C2  EFE5  F028         	goto	u4161
  1604  0051C6  EFE7  F028         	goto	u4160
  1605  0051CA                     u4161:
  1606  0051CA  EF7D  F028         	goto	l3867
  1607  0051CE                     u4160:
  1608  0051CE                     
  1609                           ; BSR set to: 0
  1610  0051CE  0012               	return		;funcret
  1611  0051D0                     __end_of_send_to_disp:
  1612                           	callstack 0
  1613                           
  1614 ;; *************** function _powf *****************
  1615 ;; Defined at:
  1616 ;;		line 53 in file "C:\Program Files\Microchip\xc8\v2.36\pic\sources\c99\common\powf.c"
  1617 ;; Parameters:    Size  Location     Type
  1618 ;;  x               4   36[BANK0 ] float 
  1619 ;;  y               4   40[BANK0 ] float 
  1620 ;; Auto vars:     Size  Location     Type
  1621 ;;  s2              4  140[BANK1 ] float 
  1622 ;;  s_h             4  108[BANK1 ] float 
  1623 ;;  t_h             4  104[BANK1 ] float 
  1624 ;;  t_l             4   52[BANK1 ] float 
  1625 ;;  s_l             4   48[BANK1 ] float 
  1626 ;;  __xc8_float_    4  184[BANK1 ] struct .
  1627 ;;  z               4  180[BANK1 ] float 
  1628 ;;  t               4  176[BANK1 ] float 
  1629 ;;  j               4  172[BANK1 ] long 
  1630 ;;  ix              4  168[BANK1 ] long 
  1631 ;;  k               4  160[BANK1 ] long 
  1632 ;;  p_h             4  156[BANK1 ] float 
  1633 ;;  iy              4  152[BANK1 ] long 
  1634 ;;  is              4  144[BANK1 ] long 
  1635 ;;  sn              4  136[BANK1 ] float 
  1636 ;;  hy              4  132[BANK1 ] long 
  1637 ;;  t1              4  128[BANK1 ] float 
  1638 ;;  n               4  124[BANK1 ] long 
  1639 ;;  v               4  120[BANK1 ] float 
  1640 ;;  u               4  116[BANK1 ] float 
  1641 ;;  ax              4  112[BANK1 ] float 
  1642 ;;  p_l             4  100[BANK1 ] float 
  1643 ;;  hx              4   96[BANK1 ] long 
  1644 ;;  s               4   92[BANK1 ] float 
  1645 ;;  yisint          4   80[BANK1 ] long 
  1646 ;;  r               4   76[BANK1 ] float 
  1647 ;;  w               4   68[BANK1 ] float 
  1648 ;;  i               4   44[BANK1 ] long 
  1649 ;;  y1              4   40[BANK1 ] float 
  1650 ;;  z_l             4   36[BANK1 ] float 
  1651 ;;  z_h             4   32[BANK1 ] float 
  1652 ;;  t2              4   28[BANK1 ] float 
  1653 ;; Return value:  Size  Location     Type
  1654 ;;                  4   36[BANK0 ] float 
  1655 ;; Registers used:
  1656 ;;		wreg, status,2, status,0, tblptrl, tblptrh, tblptru, prodl, prodh, cstack
  1657 ;; Tracked objects:
  1658 ;;		On entry : 0/0
  1659 ;;		On exit  : 0/0
  1660 ;;		Unchanged: 0/0
  1661 ;; Data sizes:     COMRAM   BANK0   BANK1   BANK2   BANK3   BANK4   BANK5   BANK6   BANK7
  1662 ;;      Params:         0       8       0       0       0       0       0       0       0
  1663 ;;      Locals:         0       0     188       0       0       0       0       0       0
  1664 ;;      Temps:          9       0       0       0       0       0       0       0       0
  1665 ;;      Totals:         9       8     188       0       0       0       0       0       0
  1666 ;;Total ram usage:      205 bytes
  1667 ;; Hardware stack levels used: 1
  1668 ;; Hardware stack levels required when called: 2
  1669 ;; This function calls:
  1670 ;;		___fladd
  1671 ;;		___fldiv
  1672 ;;		___flge
  1673 ;;		___flmul
  1674 ;;		___flneg
  1675 ;;		___flsub
  1676 ;;		___xxtofl
  1677 ;;		_fabsf
  1678 ;;		_scalbnf
  1679 ;;		_sqrtf
  1680 ;; This function is called by:
  1681 ;;		_send_to_disp
  1682 ;; This function uses a non-reentrant model
  1683 ;;
  1684                           
  1685                           	psect	text2
  1686  000880                     __ptext2:
  1687                           	callstack 0
  1688  000880                     _powf:
  1689                           	callstack 27
  1690  000880  C084  F1B8         	movff	powf@x,powf@__xc8_float_word
  1691  000884  C085  F1B9         	movff	powf@x+1,powf@__xc8_float_word+1
  1692  000888  C086  F1BA         	movff	powf@x+2,powf@__xc8_float_word+2
  1693  00088C  C087  F1BB         	movff	powf@x+3,powf@__xc8_float_word+3
  1694  000890  C1B8  F160         	movff	powf@__xc8_float_word,powf@hx
  1695  000894  C1B9  F161         	movff	powf@__xc8_float_word+1,powf@hx+1
  1696  000898  C1BA  F162         	movff	powf@__xc8_float_word+2,powf@hx+2
  1697  00089C  C1BB  F163         	movff	powf@__xc8_float_word+3,powf@hx+3
  1698  0008A0  C088  F1B8         	movff	powf@y,powf@__xc8_float_word
  1699  0008A4  C089  F1B9         	movff	powf@y+1,powf@__xc8_float_word+1
  1700  0008A8  C08A  F1BA         	movff	powf@y+2,powf@__xc8_float_word+2
  1701  0008AC  C08B  F1BB         	movff	powf@y+3,powf@__xc8_float_word+3
  1702  0008B0  C1B8  F184         	movff	powf@__xc8_float_word,powf@hy
  1703  0008B4  C1B9  F185         	movff	powf@__xc8_float_word+1,powf@hy+1
  1704  0008B8  C1BA  F186         	movff	powf@__xc8_float_word+2,powf@hy+2
  1705  0008BC  C1BB  F187         	movff	powf@__xc8_float_word+3,powf@hy+3
  1706  0008C0  0EFF               	movlw	255
  1707  0008C2  0101               	movlb	1	; () banked
  1708  0008C4  1560               	andwf	powf@hx& (0+255),w,b
  1709  0008C6  6FA8               	movwf	powf@ix& (0+255),b
  1710  0008C8  0EFF               	movlw	255
  1711  0008CA  1561               	andwf	(powf@hx+1)& (0+255),w,b
  1712  0008CC  6FA9               	movwf	(powf@ix+1)& (0+255),b
  1713  0008CE  0EFF               	movlw	255
  1714  0008D0  1562               	andwf	(powf@hx+2)& (0+255),w,b
  1715  0008D2  6FAA               	movwf	(powf@ix+2)& (0+255),b
  1716  0008D4  0E7F               	movlw	127
  1717  0008D6  1563               	andwf	(powf@hx+3)& (0+255),w,b
  1718  0008D8  6FAB               	movwf	(powf@ix+3)& (0+255),b
  1719  0008DA  0EFF               	movlw	255
  1720  0008DC  1584               	andwf	powf@hy& (0+255),w,b
  1721  0008DE  6F98               	movwf	powf@iy& (0+255),b
  1722  0008E0  0EFF               	movlw	255
  1723  0008E2  1585               	andwf	(powf@hy+1)& (0+255),w,b
  1724  0008E4  6F99               	movwf	(powf@iy+1)& (0+255),b
  1725  0008E6  0EFF               	movlw	255
  1726  0008E8  1586               	andwf	(powf@hy+2)& (0+255),w,b
  1727  0008EA  6F9A               	movwf	(powf@iy+2)& (0+255),b
  1728  0008EC  0E7F               	movlw	127
  1729  0008EE  1587               	andwf	(powf@hy+3)& (0+255),w,b
  1730  0008F0  6F9B               	movwf	(powf@iy+3)& (0+255),b
  1731  0008F2  5198               	movf	powf@iy& (0+255),w,b
  1732  0008F4  1199               	iorwf	(powf@iy+1)& (0+255),w,b
  1733  0008F6  119A               	iorwf	(powf@iy+2)& (0+255),w,b
  1734  0008F8  119B               	iorwf	(powf@iy+3)& (0+255),w,b
  1735  0008FA  A4D8               	btfss	status,2,c
  1736  0008FC  EF82  F004         	goto	u3351
  1737  000900  EF84  F004         	goto	u3350
  1738  000904                     u3351:
  1739  000904  EF8F  F004         	goto	l3209
  1740  000908                     u3350:
  1741  000908                     
  1742                           ; BSR set to: 1
  1743  000908  0E00               	movlw	0
  1744  00090A  0100               	movlb	0	; () banked
  1745  00090C  6F84               	movwf	?_powf& (0+255),b
  1746  00090E  0E00               	movlw	0
  1747  000910  6F85               	movwf	(?_powf+1)& (0+255),b
  1748  000912  0E80               	movlw	128
  1749  000914  6F86               	movwf	(?_powf+2)& (0+255),b
  1750  000916  0E3F               	movlw	63
  1751  000918  6F87               	movwf	(?_powf+3)& (0+255),b
  1752  00091A  EFBB  F018         	goto	l866
  1753  00091E                     l3209:
  1754                           
  1755                           ; BSR set to: 1
  1756  00091E  0E80               	movlw	128
  1757  000920  1962               	xorwf	(powf@hx+2)& (0+255),w,b
  1758  000922  E109               	bnz	u3361
  1759  000924  0E3F               	movlw	63
  1760  000926  1963               	xorwf	(powf@hx+3)& (0+255),w,b
  1761  000928  1160               	iorwf	powf@hx& (0+255),w,b
  1762  00092A  1161               	iorwf	(powf@hx+1)& (0+255),w,b
  1763  00092C  A4D8               	btfss	status,2,c
  1764  00092E  EF9B  F004         	goto	u3361
  1765  000932  EF9D  F004         	goto	u3360
  1766  000936                     u3361:
  1767  000936  EFA8  F004         	goto	l3215
  1768  00093A                     u3360:
  1769  00093A                     
  1770                           ; BSR set to: 1
  1771  00093A  0E00               	movlw	0
  1772  00093C  0100               	movlb	0	; () banked
  1773  00093E  6F84               	movwf	?_powf& (0+255),b
  1774  000940  0E00               	movlw	0
  1775  000942  6F85               	movwf	(?_powf+1)& (0+255),b
  1776  000944  0E80               	movlw	128
  1777  000946  6F86               	movwf	(?_powf+2)& (0+255),b
  1778  000948  0E3F               	movlw	63
  1779  00094A  6F87               	movwf	(?_powf+3)& (0+255),b
  1780  00094C  EFBB  F018         	goto	l866
  1781  000950                     l3215:
  1782                           
  1783                           ; BSR set to: 1
  1784  000950  BFAB               	btfsc	(powf@ix+3)& (0+255),7,b
  1785  000952  EFB9  F004         	goto	u3370
  1786  000956  05A8               	decf	powf@ix& (0+255),w,b
  1787  000958  0E00               	movlw	0
  1788  00095A  59A9               	subwfb	(powf@ix+1)& (0+255),w,b
  1789  00095C  0E80               	movlw	128
  1790  00095E  59AA               	subwfb	(powf@ix+2)& (0+255),w,b
  1791  000960  0E7F               	movlw	127
  1792  000962  59AB               	subwfb	(powf@ix+3)& (0+255),w,b
  1793  000964  B0D8               	btfsc	status,0,c
  1794  000966  EFB7  F004         	goto	u3371
  1795  00096A  EFB9  F004         	goto	u3370
  1796  00096E                     u3371:
  1797  00096E  EFCA  F004         	goto	l3219
  1798  000972                     u3370:
  1799  000972                     
  1800                           ; BSR set to: 1
  1801  000972  BF9B               	btfsc	(powf@iy+3)& (0+255),7,b
  1802  000974  EFC8  F004         	goto	u3381
  1803  000978  0598               	decf	powf@iy& (0+255),w,b
  1804  00097A  0E00               	movlw	0
  1805  00097C  5999               	subwfb	(powf@iy+1)& (0+255),w,b
  1806  00097E  0E80               	movlw	128
  1807  000980  599A               	subwfb	(powf@iy+2)& (0+255),w,b
  1808  000982  0E7F               	movlw	127
  1809  000984  599B               	subwfb	(powf@iy+3)& (0+255),w,b
  1810  000986  A0D8               	btfss	status,0,c
  1811  000988  EFC8  F004         	goto	u3381
  1812  00098C  EFCA  F004         	goto	u3380
  1813  000990                     u3381:
  1814  000990  EFE6  F004         	goto	l3223
  1815  000994                     u3380:
  1816  000994                     l3219:
  1817                           
  1818                           ; BSR set to: 1
  1819  000994  C084  F001         	movff	powf@x,___fladd@b
  1820  000998  C085  F002         	movff	powf@x+1,___fladd@b+1
  1821  00099C  C086  F003         	movff	powf@x+2,___fladd@b+2
  1822  0009A0  C087  F004         	movff	powf@x+3,___fladd@b+3
  1823  0009A4  C088  F005         	movff	powf@y,___fladd@a
  1824  0009A8  C089  F006         	movff	powf@y+1,___fladd@a+1
  1825  0009AC  C08A  F007         	movff	powf@y+2,___fladd@a+2
  1826  0009B0  C08B  F008         	movff	powf@y+3,___fladd@a+3
  1827  0009B4  EC1C  F01B         	call	___fladd	;wreg free
  1828  0009B8  C001  F084         	movff	?___fladd,?_powf
  1829  0009BC  C002  F085         	movff	?___fladd+1,?_powf+1
  1830  0009C0  C003  F086         	movff	?___fladd+2,?_powf+2
  1831  0009C4  C004  F087         	movff	?___fladd+3,?_powf+3
  1832  0009C8  EFBB  F018         	goto	l866
  1833  0009CC                     l3223:
  1834                           
  1835                           ; BSR set to: 1
  1836  0009CC  0E00               	movlw	0
  1837  0009CE  6F50               	movwf	powf@yisint& (0+255),b
  1838  0009D0  0E00               	movlw	0
  1839  0009D2  6F51               	movwf	(powf@yisint+1)& (0+255),b
  1840  0009D4  0E00               	movlw	0
  1841  0009D6  6F52               	movwf	(powf@yisint+2)& (0+255),b
  1842  0009D8  0E00               	movlw	0
  1843  0009DA  6F53               	movwf	(powf@yisint+3)& (0+255),b
  1844  0009DC                     
  1845                           ; BSR set to: 1
  1846  0009DC  BF63               	btfsc	(powf@hx+3)& (0+255),7,b
  1847  0009DE  EFF5  F004         	goto	u3390
  1848  0009E2  EFF3  F004         	goto	u3391
  1849  0009E6                     u3391:
  1850  0009E6  EFA0  F005         	goto	l871
  1851  0009EA                     u3390:
  1852  0009EA                     
  1853                           ; BSR set to: 1
  1854  0009EA  BF9B               	btfsc	(powf@iy+3)& (0+255),7,b
  1855  0009EC  EF01  F005         	goto	u3401
  1856  0009F0  0E80               	movlw	128
  1857  0009F2  5D9A               	subwf	(powf@iy+2)& (0+255),w,b
  1858  0009F4  0E4B               	movlw	75
  1859  0009F6  599B               	subwfb	(powf@iy+3)& (0+255),w,b
  1860  0009F8  A0D8               	btfss	status,0,c
  1861  0009FA  EF01  F005         	goto	u3401
  1862  0009FE  EF03  F005         	goto	u3400
  1863  000A02                     u3401:
  1864  000A02  EF0D  F005         	goto	l3231
  1865  000A06                     u3400:
  1866  000A06                     
  1867                           ; BSR set to: 1
  1868  000A06  0E02               	movlw	2
  1869  000A08  6F50               	movwf	powf@yisint& (0+255),b
  1870  000A0A  0E00               	movlw	0
  1871  000A0C  6F51               	movwf	(powf@yisint+1)& (0+255),b
  1872  000A0E  0E00               	movlw	0
  1873  000A10  6F52               	movwf	(powf@yisint+2)& (0+255),b
  1874  000A12  0E00               	movlw	0
  1875  000A14  6F53               	movwf	(powf@yisint+3)& (0+255),b
  1876  000A16  EFA0  F005         	goto	l871
  1877  000A1A                     l3231:
  1878                           
  1879                           ; BSR set to: 1
  1880  000A1A  BF9B               	btfsc	(powf@iy+3)& (0+255),7,b
  1881  000A1C  EF19  F005         	goto	u3411
  1882  000A20  0E80               	movlw	128
  1883  000A22  5D9A               	subwf	(powf@iy+2)& (0+255),w,b
  1884  000A24  0E3F               	movlw	63
  1885  000A26  599B               	subwfb	(powf@iy+3)& (0+255),w,b
  1886  000A28  A0D8               	btfss	status,0,c
  1887  000A2A  EF19  F005         	goto	u3411
  1888  000A2E  EF1B  F005         	goto	u3410
  1889  000A32                     u3411:
  1890  000A32  EFA0  F005         	goto	l871
  1891  000A36                     u3410:
  1892  000A36                     
  1893                           ; BSR set to: 1
  1894  000A36  0E17               	movlw	23
  1895  000A38  6E4B               	movwf	??_powf^0,c
  1896  000A3A  C198  F04C         	movff	powf@iy,??_powf+1
  1897  000A3E  C199  F04D         	movff	powf@iy+1,??_powf+2
  1898  000A42  C19A  F04E         	movff	powf@iy+2,??_powf+3
  1899  000A46  C19B  F04F         	movff	powf@iy+3,??_powf+4
  1900  000A4A                     u3425:
  1901  000A4A  664B               	tstfsz	??_powf^0,c
  1902  000A4C  EF2A  F005         	goto	u3426
  1903  000A50  EF32  F005         	goto	u3427
  1904  000A54                     u3426:
  1905  000A54  344F               	rlcf	(??_powf+4)^0,w,c
  1906  000A56  324F               	rrcf	(??_powf+4)^0,f,c
  1907  000A58  324E               	rrcf	(??_powf+3)^0,f,c
  1908  000A5A  324D               	rrcf	(??_powf+2)^0,f,c
  1909  000A5C  324C               	rrcf	(??_powf+1)^0,f,c
  1910  000A5E  2E4B               	decfsz	??_powf^0,f,c
  1911  000A60  EF25  F005         	goto	u3425
  1912  000A64                     u3427:
  1913  000A64  0E81               	movlw	129
  1914  000A66  244C               	addwf	(??_powf+1)^0,w,c
  1915  000A68  0101               	movlb	1	; () banked
  1916  000A6A  6FA0               	movwf	powf@k& (0+255),b
  1917  000A6C  0EFF               	movlw	255
  1918  000A6E  204D               	addwfc	(??_powf+2)^0,w,c
  1919  000A70  6FA1               	movwf	(powf@k+1)& (0+255),b
  1920  000A72  0EFF               	movlw	255
  1921  000A74  204E               	addwfc	(??_powf+3)^0,w,c
  1922  000A76  6FA2               	movwf	(powf@k+2)& (0+255),b
  1923  000A78  0EFF               	movlw	255
  1924  000A7A  204F               	addwfc	(??_powf+4)^0,w,c
  1925  000A7C  6FA3               	movwf	(powf@k+3)& (0+255),b
  1926  000A7E  51A0               	movf	powf@k& (0+255),w,b
  1927  000A80  0817               	sublw	23
  1928  000A82  6E4B               	movwf	??_powf^0,c
  1929  000A84  C198  F04C         	movff	powf@iy,??_powf+1
  1930  000A88  C199  F04D         	movff	powf@iy+1,??_powf+2
  1931  000A8C  C19A  F04E         	movff	powf@iy+2,??_powf+3
  1932  000A90  C19B  F04F         	movff	powf@iy+3,??_powf+4
  1933  000A94                     u3435:
  1934  000A94  664B               	tstfsz	??_powf^0,c
  1935  000A96  EF4F  F005         	goto	u3436
  1936  000A9A  EF57  F005         	goto	u3437
  1937  000A9E                     u3436:
  1938  000A9E  344F               	rlcf	(??_powf+4)^0,w,c
  1939  000AA0  324F               	rrcf	(??_powf+4)^0,f,c
  1940  000AA2  324E               	rrcf	(??_powf+3)^0,f,c
  1941  000AA4  324D               	rrcf	(??_powf+2)^0,f,c
  1942  000AA6  324C               	rrcf	(??_powf+1)^0,f,c
  1943  000AA8  2E4B               	decfsz	??_powf^0,f,c
  1944  000AAA  EF4A  F005         	goto	u3435
  1945  000AAE                     u3437:
  1946  000AAE  C04C  F1AC         	movff	??_powf+1,powf@j
  1947  000AB2  C04D  F1AD         	movff	??_powf+2,powf@j+1
  1948  000AB6  C04E  F1AE         	movff	??_powf+3,powf@j+2
  1949  000ABA  C04F  F1AF         	movff	??_powf+4,powf@j+3
  1950  000ABE  0101               	movlb	1	; () banked
  1951  000AC0  51A0               	movf	powf@k& (0+255),w,b
  1952  000AC2  0817               	sublw	23
  1953  000AC4  6E4B               	movwf	??_powf^0,c
  1954  000AC6  C1AC  F04C         	movff	powf@j,??_powf+1
  1955  000ACA  C1AD  F04D         	movff	powf@j+1,??_powf+2
  1956  000ACE  C1AE  F04E         	movff	powf@j+2,??_powf+3
  1957  000AD2  C1AF  F04F         	movff	powf@j+3,??_powf+4
  1958  000AD6  2A4B               	incf	??_powf^0,f,c
  1959  000AD8  EF73  F005         	goto	u3440
  1960  000ADC                     u3445:
  1961  000ADC  90D8               	bcf	status,0,c
  1962  000ADE  364C               	rlcf	(??_powf+1)^0,f,c
  1963  000AE0  364D               	rlcf	(??_powf+2)^0,f,c
  1964  000AE2  364E               	rlcf	(??_powf+3)^0,f,c
  1965  000AE4  364F               	rlcf	(??_powf+4)^0,f,c
  1966  000AE6                     u3440:
  1967  000AE6  2E4B               	decfsz	??_powf^0,f,c
  1968  000AE8  EF6E  F005         	goto	u3445
  1969  000AEC  5198               	movf	powf@iy& (0+255),w,b
  1970  000AEE  184C               	xorwf	(??_powf+1)^0,w,c
  1971  000AF0  E10D               	bnz	u3451
  1972  000AF2  5199               	movf	(powf@iy+1)& (0+255),w,b
  1973  000AF4  184D               	xorwf	(??_powf+2)^0,w,c
  1974  000AF6  E10A               	bnz	u3451
  1975  000AF8  519A               	movf	(powf@iy+2)& (0+255),w,b
  1976  000AFA  184E               	xorwf	(??_powf+3)^0,w,c
  1977  000AFC  E107               	bnz	u3451
  1978  000AFE  519B               	movf	(powf@iy+3)& (0+255),w,b
  1979  000B00  184F               	xorwf	(??_powf+4)^0,w,c
  1980  000B02  A4D8               	btfss	status,2,c
  1981  000B04  EF86  F005         	goto	u3451
  1982  000B08  EF88  F005         	goto	u3450
  1983  000B0C                     u3451:
  1984  000B0C  EFA0  F005         	goto	l871
  1985  000B10                     u3450:
  1986  000B10                     
  1987                           ; BSR set to: 1
  1988  000B10  0E01               	movlw	1
  1989  000B12  15AC               	andwf	powf@j& (0+255),w,b
  1990  000B14  6E4B               	movwf	??_powf^0,c
  1991  000B16  0E00               	movlw	0
  1992  000B18  15AD               	andwf	(powf@j+1)& (0+255),w,b
  1993  000B1A  6E4C               	movwf	(??_powf+1)^0,c
  1994  000B1C  0E00               	movlw	0
  1995  000B1E  15AE               	andwf	(powf@j+2)& (0+255),w,b
  1996  000B20  6E4D               	movwf	(??_powf+2)^0,c
  1997  000B22  0E00               	movlw	0
  1998  000B24  15AF               	andwf	(powf@j+3)& (0+255),w,b
  1999  000B26  6E4E               	movwf	(??_powf+3)^0,c
  2000  000B28  504B               	movf	??_powf^0,w,c
  2001  000B2A  0802               	sublw	2
  2002  000B2C  6F50               	movwf	powf@yisint& (0+255),b
  2003  000B2E  0E00               	movlw	0
  2004  000B30  544C               	subfwb	(??_powf+1)^0,w,c
  2005  000B32  6F51               	movwf	(powf@yisint+1)& (0+255),b
  2006  000B34  0E00               	movlw	0
  2007  000B36  544D               	subfwb	(??_powf+2)^0,w,c
  2008  000B38  6F52               	movwf	(powf@yisint+2)& (0+255),b
  2009  000B3A  0E00               	movlw	0
  2010  000B3C  544E               	subfwb	(??_powf+3)^0,w,c
  2011  000B3E  6F53               	movwf	(powf@yisint+3)& (0+255),b
  2012  000B40                     l871:
  2013                           
  2014                           ; BSR set to: 1
  2015  000B40  0E80               	movlw	128
  2016  000B42  199A               	xorwf	(powf@iy+2)& (0+255),w,b
  2017  000B44  E109               	bnz	u3461
  2018  000B46  0E7F               	movlw	127
  2019  000B48  199B               	xorwf	(powf@iy+3)& (0+255),w,b
  2020  000B4A  1198               	iorwf	powf@iy& (0+255),w,b
  2021  000B4C  1199               	iorwf	(powf@iy+1)& (0+255),w,b
  2022  000B4E  A4D8               	btfss	status,2,c
  2023  000B50  EFAC  F005         	goto	u3461
  2024  000B54  EFAE  F005         	goto	u3460
  2025  000B58                     u3461:
  2026  000B58  EF1A  F006         	goto	l3261
  2027  000B5C                     u3460:
  2028  000B5C                     
  2029                           ; BSR set to: 1
  2030  000B5C  0E80               	movlw	128
  2031  000B5E  19AA               	xorwf	(powf@ix+2)& (0+255),w,b
  2032  000B60  E109               	bnz	u3471
  2033  000B62  0E3F               	movlw	63
  2034  000B64  19AB               	xorwf	(powf@ix+3)& (0+255),w,b
  2035  000B66  11A8               	iorwf	powf@ix& (0+255),w,b
  2036  000B68  11A9               	iorwf	(powf@ix+1)& (0+255),w,b
  2037  000B6A  A4D8               	btfss	status,2,c
  2038  000B6C  EFBA  F005         	goto	u3471
  2039  000B70  EFBC  F005         	goto	u3470
  2040  000B74                     u3471:
  2041  000B74  EFC7  F005         	goto	l3245
  2042  000B78                     u3470:
  2043  000B78                     
  2044                           ; BSR set to: 1
  2045  000B78  0E00               	movlw	0
  2046  000B7A  0100               	movlb	0	; () banked
  2047  000B7C  6F84               	movwf	?_powf& (0+255),b
  2048  000B7E  0E00               	movlw	0
  2049  000B80  6F85               	movwf	(?_powf+1)& (0+255),b
  2050  000B82  0E80               	movlw	128
  2051  000B84  6F86               	movwf	(?_powf+2)& (0+255),b
  2052  000B86  0E3F               	movlw	63
  2053  000B88  6F87               	movwf	(?_powf+3)& (0+255),b
  2054  000B8A  EFBB  F018         	goto	l866
  2055  000B8E                     l3245:
  2056                           
  2057                           ; BSR set to: 1
  2058  000B8E  BFAB               	btfsc	(powf@ix+3)& (0+255),7,b
  2059  000B90  EFD6  F005         	goto	u3481
  2060  000B94  05A8               	decf	powf@ix& (0+255),w,b
  2061  000B96  0E00               	movlw	0
  2062  000B98  59A9               	subwfb	(powf@ix+1)& (0+255),w,b
  2063  000B9A  0E80               	movlw	128
  2064  000B9C  59AA               	subwfb	(powf@ix+2)& (0+255),w,b
  2065  000B9E  0E3F               	movlw	63
  2066  000BA0  59AB               	subwfb	(powf@ix+3)& (0+255),w,b
  2067  000BA2  A0D8               	btfss	status,0,c
  2068  000BA4  EFD6  F005         	goto	u3481
  2069  000BA8  EFD8  F005         	goto	u3480
  2070  000BAC                     u3481:
  2071  000BAC  EFF4  F005         	goto	l3253
  2072  000BB0                     u3480:
  2073  000BB0                     
  2074                           ; BSR set to: 1
  2075  000BB0  BF87               	btfsc	(powf@hy+3)& (0+255),7,b
  2076  000BB2  EFDF  F005         	goto	u3490
  2077  000BB6  EFDD  F005         	goto	u3491
  2078  000BBA                     u3491:
  2079  000BBA  EFEA  F005         	goto	l881
  2080  000BBE                     u3490:
  2081  000BBE                     
  2082                           ; BSR set to: 1
  2083  000BBE  0E00               	movlw	0
  2084  000BC0  0100               	movlb	0	; () banked
  2085  000BC2  6F84               	movwf	?_powf& (0+255),b
  2086  000BC4  0E00               	movlw	0
  2087  000BC6  6F85               	movwf	(?_powf+1)& (0+255),b
  2088  000BC8  0E00               	movlw	0
  2089  000BCA  6F86               	movwf	(?_powf+2)& (0+255),b
  2090  000BCC  0E00               	movlw	0
  2091  000BCE  6F87               	movwf	(?_powf+3)& (0+255),b
  2092  000BD0  EFBB  F018         	goto	l866
  2093  000BD4                     l881:
  2094                           
  2095                           ; BSR set to: 1
  2096  000BD4  C088  F084         	movff	powf@y,?_powf
  2097  000BD8  C089  F085         	movff	powf@y+1,?_powf+1
  2098  000BDC  C08A  F086         	movff	powf@y+2,?_powf+2
  2099  000BE0  C08B  F087         	movff	powf@y+3,?_powf+3
  2100  000BE4  EFBB  F018         	goto	l866
  2101  000BE8                     l3253:
  2102                           
  2103                           ; BSR set to: 1
  2104  000BE8  BF87               	btfsc	(powf@hy+3)& (0+255),7,b
  2105  000BEA  EFFB  F005         	goto	u3500
  2106  000BEE  EFF9  F005         	goto	u3501
  2107  000BF2                     u3501:
  2108  000BF2  EF0F  F006         	goto	l3257
  2109  000BF6                     u3500:
  2110  000BF6                     
  2111                           ; BSR set to: 1
  2112  000BF6  C088  F001         	movff	powf@y,___flneg@f1
  2113  000BFA  C089  F002         	movff	powf@y+1,___flneg@f1+1
  2114  000BFE  C08A  F003         	movff	powf@y+2,___flneg@f1+2
  2115  000C02  C08B  F004         	movff	powf@y+3,___flneg@f1+3
  2116  000C06  EC0B  F029         	call	___flneg	;wreg free
  2117  000C0A  C001  F084         	movff	?___flneg,?_powf
  2118  000C0E  C002  F085         	movff	?___flneg+1,?_powf+1
  2119  000C12  C003  F086         	movff	?___flneg+2,?_powf+2
  2120  000C16  C004  F087         	movff	?___flneg+3,?_powf+3
  2121  000C1A  EFBB  F018         	goto	l866
  2122  000C1E                     l3257:
  2123                           
  2124                           ; BSR set to: 1
  2125  000C1E  0E00               	movlw	0
  2126  000C20  0100               	movlb	0	; () banked
  2127  000C22  6F84               	movwf	?_powf& (0+255),b
  2128  000C24  0E00               	movlw	0
  2129  000C26  6F85               	movwf	(?_powf+1)& (0+255),b
  2130  000C28  0E00               	movlw	0
  2131  000C2A  6F86               	movwf	(?_powf+2)& (0+255),b
  2132  000C2C  0E00               	movlw	0
  2133  000C2E  6F87               	movwf	(?_powf+3)& (0+255),b
  2134  000C30  EFBB  F018         	goto	l866
  2135  000C34                     l3261:
  2136                           
  2137                           ; BSR set to: 1
  2138  000C34  0E80               	movlw	128
  2139  000C36  199A               	xorwf	(powf@iy+2)& (0+255),w,b
  2140  000C38  E109               	bnz	u3511
  2141  000C3A  0E3F               	movlw	63
  2142  000C3C  199B               	xorwf	(powf@iy+3)& (0+255),w,b
  2143  000C3E  1198               	iorwf	powf@iy& (0+255),w,b
  2144  000C40  1199               	iorwf	(powf@iy+1)& (0+255),w,b
  2145  000C42  A4D8               	btfss	status,2,c
  2146  000C44  EF26  F006         	goto	u3511
  2147  000C48  EF28  F006         	goto	u3510
  2148  000C4C                     u3511:
  2149  000C4C  EF55  F006         	goto	l3267
  2150  000C50                     u3510:
  2151  000C50                     
  2152                           ; BSR set to: 1
  2153  000C50  BF87               	btfsc	(powf@hy+3)& (0+255),7,b
  2154  000C52  EF2F  F006         	goto	u3520
  2155  000C56  EF2D  F006         	goto	u3521
  2156  000C5A                     u3521:
  2157  000C5A  EF4B  F006         	goto	l891
  2158  000C5E                     u3520:
  2159  000C5E                     
  2160                           ; BSR set to: 1
  2161  000C5E  0E00               	movlw	0
  2162  000C60  6E32               	movwf	___fldiv@b^0,c
  2163  000C62  0E00               	movlw	0
  2164  000C64  6E33               	movwf	(___fldiv@b+1)^0,c
  2165  000C66  0E80               	movlw	128
  2166  000C68  6E34               	movwf	(___fldiv@b+2)^0,c
  2167  000C6A  0E3F               	movlw	63
  2168  000C6C  6E35               	movwf	(___fldiv@b+3)^0,c
  2169  000C6E  C084  F036         	movff	powf@x,___fldiv@a
  2170  000C72  C085  F037         	movff	powf@x+1,___fldiv@a+1
  2171  000C76  C086  F038         	movff	powf@x+2,___fldiv@a+2
  2172  000C7A  C087  F039         	movff	powf@x+3,___fldiv@a+3
  2173  000C7E  ECCF  F021         	call	___fldiv	;wreg free
  2174  000C82  C032  F084         	movff	?___fldiv,?_powf
  2175  000C86  C033  F085         	movff	?___fldiv+1,?_powf+1
  2176  000C8A  C034  F086         	movff	?___fldiv+2,?_powf+2
  2177  000C8E  C035  F087         	movff	?___fldiv+3,?_powf+3
  2178  000C92  EFBB  F018         	goto	l866
  2179  000C96                     l891:
  2180                           
  2181                           ; BSR set to: 1
  2182  000C96  C084  F084         	movff	powf@x,?_powf
  2183  000C9A  C085  F085         	movff	powf@x+1,?_powf+1
  2184  000C9E  C086  F086         	movff	powf@x+2,?_powf+2
  2185  000CA2  C087  F087         	movff	powf@x+3,?_powf+3
  2186  000CA6  EFBB  F018         	goto	l866
  2187  000CAA                     l3267:
  2188                           
  2189                           ; BSR set to: 1
  2190  000CAA  0E40               	movlw	64
  2191  000CAC  1987               	xorwf	(powf@hy+3)& (0+255),w,b
  2192  000CAE  1184               	iorwf	powf@hy& (0+255),w,b
  2193  000CB0  1185               	iorwf	(powf@hy+1)& (0+255),w,b
  2194  000CB2  1186               	iorwf	(powf@hy+2)& (0+255),w,b
  2195  000CB4  A4D8               	btfss	status,2,c
  2196  000CB6  EF5F  F006         	goto	u3531
  2197  000CBA  EF61  F006         	goto	u3530
  2198  000CBE                     u3531:
  2199  000CBE  EF7D  F006         	goto	l3273
  2200  000CC2                     u3530:
  2201  000CC2                     
  2202                           ; BSR set to: 1
  2203  000CC2  C084  F011         	movff	powf@x,___flmul@b
  2204  000CC6  C085  F012         	movff	powf@x+1,___flmul@b+1
  2205  000CCA  C086  F013         	movff	powf@x+2,___flmul@b+2
  2206  000CCE  C087  F014         	movff	powf@x+3,___flmul@b+3
  2207  000CD2  C084  F015         	movff	powf@x,___flmul@a
  2208  000CD6  C085  F016         	movff	powf@x+1,___flmul@a+1
  2209  000CDA  C086  F017         	movff	powf@x+2,___flmul@a+2
  2210  000CDE  C087  F018         	movff	powf@x+3,___flmul@a+3
  2211  000CE2  ECBA  F01F         	call	___flmul	;wreg free
  2212  000CE6  C011  F084         	movff	?___flmul,?_powf
  2213  000CEA  C012  F085         	movff	?___flmul+1,?_powf+1
  2214  000CEE  C013  F086         	movff	?___flmul+2,?_powf+2
  2215  000CF2  C014  F087         	movff	?___flmul+3,?_powf+3
  2216  000CF6  EFBB  F018         	goto	l866
  2217  000CFA                     l3273:
  2218                           
  2219                           ; BSR set to: 1
  2220  000CFA  0E3F               	movlw	63
  2221  000CFC  1987               	xorwf	(powf@hy+3)& (0+255),w,b
  2222  000CFE  1184               	iorwf	powf@hy& (0+255),w,b
  2223  000D00  1185               	iorwf	(powf@hy+1)& (0+255),w,b
  2224  000D02  1186               	iorwf	(powf@hy+2)& (0+255),w,b
  2225  000D04  A4D8               	btfss	status,2,c
  2226  000D06  EF87  F006         	goto	u3541
  2227  000D0A  EF89  F006         	goto	u3540
  2228  000D0E                     u3541:
  2229  000D0E  EFA4  F006         	goto	l3281
  2230  000D12                     u3540:
  2231  000D12                     
  2232                           ; BSR set to: 1
  2233  000D12  BF63               	btfsc	(powf@hx+3)& (0+255),7,b
  2234  000D14  EF8E  F006         	goto	u3551
  2235  000D18  EF90  F006         	goto	u3550
  2236  000D1C                     u3551:
  2237  000D1C  EFA4  F006         	goto	l3281
  2238  000D20                     u3550:
  2239  000D20                     
  2240                           ; BSR set to: 1
  2241  000D20  C084  F03E         	movff	powf@x,sqrtf@x
  2242  000D24  C085  F03F         	movff	powf@x+1,sqrtf@x+1
  2243  000D28  C086  F040         	movff	powf@x+2,sqrtf@x+2
  2244  000D2C  C087  F041         	movff	powf@x+3,sqrtf@x+3
  2245  000D30  ECBC  F018         	call	_sqrtf	;wreg free
  2246  000D34  C03E  F084         	movff	?_sqrtf,?_powf
  2247  000D38  C03F  F085         	movff	?_sqrtf+1,?_powf+1
  2248  000D3C  C040  F086         	movff	?_sqrtf+2,?_powf+2
  2249  000D40  C041  F087         	movff	?_sqrtf+3,?_powf+3
  2250  000D44  EFBB  F018         	goto	l866
  2251  000D48                     l3281:
  2252                           
  2253                           ; BSR set to: 1
  2254  000D48  C084  F001         	movff	powf@x,fabsf@x
  2255  000D4C  C085  F002         	movff	powf@x+1,fabsf@x+1
  2256  000D50  C086  F003         	movff	powf@x+2,fabsf@x+2
  2257  000D54  C087  F004         	movff	powf@x+3,fabsf@x+3
  2258  000D58  EC27  F029         	call	_fabsf	;wreg free
  2259  000D5C  C001  F170         	movff	?_fabsf,powf@ax
  2260  000D60  C002  F171         	movff	?_fabsf+1,powf@ax+1
  2261  000D64  C003  F172         	movff	?_fabsf+2,powf@ax+2
  2262  000D68  C004  F173         	movff	?_fabsf+3,powf@ax+3
  2263  000D6C  0E80               	movlw	128
  2264  000D6E  0101               	movlb	1	; () banked
  2265  000D70  19AA               	xorwf	(powf@ix+2)& (0+255),w,b
  2266  000D72  E10B               	bnz	u3560
  2267  000D74  0E7F               	movlw	127
  2268  000D76  19AB               	xorwf	(powf@ix+3)& (0+255),w,b
  2269  000D78  11A8               	iorwf	powf@ix& (0+255),w,b
  2270  000D7A  11A9               	iorwf	(powf@ix+1)& (0+255),w,b
  2271  000D7C  B4D8               	btfsc	status,2,c
  2272  000D7E  EFC3  F006         	goto	u3561
  2273  000D82  EFC5  F006         	goto	u3560
  2274  000D86                     u3561:
  2275  000D86  EFDE  F006         	goto	l899
  2276  000D8A                     u3560:
  2277  000D8A                     
  2278                           ; BSR set to: 1
  2279  000D8A  51A8               	movf	powf@ix& (0+255),w,b
  2280  000D8C  11A9               	iorwf	(powf@ix+1)& (0+255),w,b
  2281  000D8E  11AA               	iorwf	(powf@ix+2)& (0+255),w,b
  2282  000D90  11AB               	iorwf	(powf@ix+3)& (0+255),w,b
  2283  000D92  B4D8               	btfsc	status,2,c
  2284  000D94  EFCE  F006         	goto	u3571
  2285  000D98  EFD0  F006         	goto	u3570
  2286  000D9C                     u3571:
  2287  000D9C  EFDE  F006         	goto	l899
  2288  000DA0                     u3570:
  2289  000DA0                     
  2290                           ; BSR set to: 1
  2291  000DA0  0E80               	movlw	128
  2292  000DA2  19AA               	xorwf	(powf@ix+2)& (0+255),w,b
  2293  000DA4  E109               	bnz	u3581
  2294  000DA6  0E3F               	movlw	63
  2295  000DA8  19AB               	xorwf	(powf@ix+3)& (0+255),w,b
  2296  000DAA  11A8               	iorwf	powf@ix& (0+255),w,b
  2297  000DAC  11A9               	iorwf	(powf@ix+1)& (0+255),w,b
  2298  000DAE  A4D8               	btfss	status,2,c
  2299  000DB0  EFDC  F006         	goto	u3581
  2300  000DB4  EFDE  F006         	goto	u3580
  2301  000DB8                     u3581:
  2302  000DB8  EF9E  F007         	goto	l3309
  2303  000DBC                     u3580:
  2304  000DBC                     l899:
  2305                           
  2306                           ; BSR set to: 1
  2307  000DBC  C170  F1B4         	movff	powf@ax,powf@z
  2308  000DC0  C171  F1B5         	movff	powf@ax+1,powf@z+1
  2309  000DC4  C172  F1B6         	movff	powf@ax+2,powf@z+2
  2310  000DC8  C173  F1B7         	movff	powf@ax+3,powf@z+3
  2311  000DCC                     
  2312                           ; BSR set to: 1
  2313  000DCC  BF87               	btfsc	(powf@hy+3)& (0+255),7,b
  2314  000DCE  EFED  F006         	goto	u3590
  2315  000DD2  EFEB  F006         	goto	u3591
  2316  000DD6                     u3591:
  2317  000DD6  EF07  F007         	goto	l3293
  2318  000DDA                     u3590:
  2319  000DDA                     
  2320                           ; BSR set to: 1
  2321  000DDA  0E00               	movlw	0
  2322  000DDC  6E32               	movwf	___fldiv@b^0,c
  2323  000DDE  0E00               	movlw	0
  2324  000DE0  6E33               	movwf	(___fldiv@b+1)^0,c
  2325  000DE2  0E80               	movlw	128
  2326  000DE4  6E34               	movwf	(___fldiv@b+2)^0,c
  2327  000DE6  0E3F               	movlw	63
  2328  000DE8  6E35               	movwf	(___fldiv@b+3)^0,c
  2329  000DEA  C1B4  F036         	movff	powf@z,___fldiv@a
  2330  000DEE  C1B5  F037         	movff	powf@z+1,___fldiv@a+1
  2331  000DF2  C1B6  F038         	movff	powf@z+2,___fldiv@a+2
  2332  000DF6  C1B7  F039         	movff	powf@z+3,___fldiv@a+3
  2333  000DFA  ECCF  F021         	call	___fldiv	;wreg free
  2334  000DFE  C032  F1B4         	movff	?___fldiv,powf@z
  2335  000E02  C033  F1B5         	movff	?___fldiv+1,powf@z+1
  2336  000E06  C034  F1B6         	movff	?___fldiv+2,powf@z+2
  2337  000E0A  C035  F1B7         	movff	?___fldiv+3,powf@z+3
  2338  000E0E                     l3293:
  2339  000E0E  0101               	movlb	1	; () banked
  2340  000E10  BF63               	btfsc	(powf@hx+3)& (0+255),7,b
  2341  000E12  EF0F  F007         	goto	u3600
  2342  000E16  EF0D  F007         	goto	u3601
  2343  000E1A                     u3601:
  2344  000E1A  EF94  F007         	goto	l3305
  2345  000E1E                     u3600:
  2346  000E1E                     
  2347                           ; BSR set to: 1
  2348  000E1E  0E00               	movlw	0
  2349  000E20  25A8               	addwf	powf@ix& (0+255),w,b
  2350  000E22  6E4B               	movwf	??_powf^0,c
  2351  000E24  0E00               	movlw	0
  2352  000E26  21A9               	addwfc	(powf@ix+1)& (0+255),w,b
  2353  000E28  6E4C               	movwf	(??_powf+1)^0,c
  2354  000E2A  0E80               	movlw	128
  2355  000E2C  21AA               	addwfc	(powf@ix+2)& (0+255),w,b
  2356  000E2E  6E4D               	movwf	(??_powf+2)^0,c
  2357  000E30  0EC0               	movlw	192
  2358  000E32  21AB               	addwfc	(powf@ix+3)& (0+255),w,b
  2359  000E34  6E4E               	movwf	(??_powf+3)^0,c
  2360  000E36  5150               	movf	powf@yisint& (0+255),w,b
  2361  000E38  104B               	iorwf	??_powf^0,w,c
  2362  000E3A  6E4F               	movwf	(??_powf+4)^0,c
  2363  000E3C  5151               	movf	(powf@yisint+1)& (0+255),w,b
  2364  000E3E  104C               	iorwf	(??_powf+1)^0,w,c
  2365  000E40  6E50               	movwf	(??_powf+5)^0,c
  2366  000E42  5152               	movf	(powf@yisint+2)& (0+255),w,b
  2367  000E44  104D               	iorwf	(??_powf+2)^0,w,c
  2368  000E46  6E51               	movwf	(??_powf+6)^0,c
  2369  000E48  5153               	movf	(powf@yisint+3)& (0+255),w,b
  2370  000E4A  104E               	iorwf	(??_powf+3)^0,w,c
  2371  000E4C  6E52               	movwf	(??_powf+7)^0,c
  2372  000E4E  504F               	movf	(??_powf+4)^0,w,c
  2373  000E50  1050               	iorwf	(??_powf+5)^0,w,c
  2374  000E52  1051               	iorwf	(??_powf+6)^0,w,c
  2375  000E54  1052               	iorwf	(??_powf+7)^0,w,c
  2376  000E56  A4D8               	btfss	status,2,c
  2377  000E58  EF30  F007         	goto	u3611
  2378  000E5C  EF32  F007         	goto	u3610
  2379  000E60                     u3611:
  2380  000E60  EF77  F007         	goto	l3301
  2381  000E64                     u3610:
  2382  000E64                     
  2383                           ; BSR set to: 1
  2384  000E64  0E00               	movlw	0
  2385  000E66  0100               	movlb	0	; () banked
  2386  000E68  6FAB               	movwf	(_errno+1)& (0+255),b
  2387  000E6A  0E21               	movlw	33
  2388  000E6C  6FAA               	movwf	_errno& (0+255),b
  2389  000E6E                     
  2390                           ; BSR set to: 0
  2391  000E6E  C1B4  F02E         	movff	powf@z,___flsub@a
  2392  000E72  C1B5  F02F         	movff	powf@z+1,___flsub@a+1
  2393  000E76  C1B6  F030         	movff	powf@z+2,___flsub@a+2
  2394  000E7A  C1B7  F031         	movff	powf@z+3,___flsub@a+3
  2395  000E7E  C1B4  F02A         	movff	powf@z,___flsub@b
  2396  000E82  C1B5  F02B         	movff	powf@z+1,___flsub@b+1
  2397  000E86  C1B6  F02C         	movff	powf@z+2,___flsub@b+2
  2398  000E8A  C1B7  F02D         	movff	powf@z+3,___flsub@b+3
  2399  000E8E  ECE8  F028         	call	___flsub	;wreg free
  2400  000E92  C02A  F032         	movff	?___flsub,___fldiv@b
  2401  000E96  C02B  F033         	movff	?___flsub+1,___fldiv@b+1
  2402  000E9A  C02C  F034         	movff	?___flsub+2,___fldiv@b+2
  2403  000E9E  C02D  F035         	movff	?___flsub+3,___fldiv@b+3
  2404  000EA2  C1B4  F02E         	movff	powf@z,___flsub@a
  2405  000EA6  C1B5  F02F         	movff	powf@z+1,___flsub@a+1
  2406  000EAA  C1B6  F030         	movff	powf@z+2,___flsub@a+2
  2407  000EAE  C1B7  F031         	movff	powf@z+3,___flsub@a+3
  2408  000EB2  C1B4  F02A         	movff	powf@z,___flsub@b
  2409  000EB6  C1B5  F02B         	movff	powf@z+1,___flsub@b+1
  2410  000EBA  C1B6  F02C         	movff	powf@z+2,___flsub@b+2
  2411  000EBE  C1B7  F02D         	movff	powf@z+3,___flsub@b+3
  2412  000EC2  ECE8  F028         	call	___flsub	;wreg free
  2413  000EC6  C02A  F036         	movff	?___flsub,___fldiv@a
  2414  000ECA  C02B  F037         	movff	?___flsub+1,___fldiv@a+1
  2415  000ECE  C02C  F038         	movff	?___flsub+2,___fldiv@a+2
  2416  000ED2  C02D  F039         	movff	?___flsub+3,___fldiv@a+3
  2417  000ED6  ECCF  F021         	call	___fldiv	;wreg free
  2418  000EDA  C032  F1B4         	movff	?___fldiv,powf@z
  2419  000EDE  C033  F1B5         	movff	?___fldiv+1,powf@z+1
  2420  000EE2  C034  F1B6         	movff	?___fldiv+2,powf@z+2
  2421  000EE6  C035  F1B7         	movff	?___fldiv+3,powf@z+3
  2422  000EEA  EF94  F007         	goto	l3305
  2423  000EEE                     l3301:
  2424                           
  2425                           ; BSR set to: 1
  2426  000EEE  0550               	decf	powf@yisint& (0+255),w,b
  2427  000EF0  1151               	iorwf	(powf@yisint+1)& (0+255),w,b
  2428  000EF2  1152               	iorwf	(powf@yisint+2)& (0+255),w,b
  2429  000EF4  1153               	iorwf	(powf@yisint+3)& (0+255),w,b
  2430  000EF6  A4D8               	btfss	status,2,c
  2431  000EF8  EF80  F007         	goto	u3621
  2432  000EFC  EF82  F007         	goto	u3620
  2433  000F00                     u3621:
  2434  000F00  EF94  F007         	goto	l3305
  2435  000F04                     u3620:
  2436  000F04                     
  2437                           ; BSR set to: 1
  2438  000F04  C1B4  F001         	movff	powf@z,___flneg@f1
  2439  000F08  C1B5  F002         	movff	powf@z+1,___flneg@f1+1
  2440  000F0C  C1B6  F003         	movff	powf@z+2,___flneg@f1+2
  2441  000F10  C1B7  F004         	movff	powf@z+3,___flneg@f1+3
  2442  000F14  EC0B  F029         	call	___flneg	;wreg free
  2443  000F18  C001  F1B4         	movff	?___flneg,powf@z
  2444  000F1C  C002  F1B5         	movff	?___flneg+1,powf@z+1
  2445  000F20  C003  F1B6         	movff	?___flneg+2,powf@z+2
  2446  000F24  C004  F1B7         	movff	?___flneg+3,powf@z+3
  2447  000F28                     l3305:
  2448  000F28  C1B4  F084         	movff	powf@z,?_powf
  2449  000F2C  C1B5  F085         	movff	powf@z+1,?_powf+1
  2450  000F30  C1B6  F086         	movff	powf@z+2,?_powf+2
  2451  000F34  C1B7  F087         	movff	powf@z+3,?_powf+3
  2452  000F38  EFBB  F018         	goto	l866
  2453  000F3C                     l3309:
  2454                           
  2455                           ; BSR set to: 1
  2456  000F3C  0E00               	movlw	0
  2457  000F3E  6F88               	movwf	powf@sn& (0+255),b
  2458  000F40  0E00               	movlw	0
  2459  000F42  6F89               	movwf	(powf@sn+1)& (0+255),b
  2460  000F44  0E80               	movlw	128
  2461  000F46  6F8A               	movwf	(powf@sn+2)& (0+255),b
  2462  000F48  0E3F               	movlw	63
  2463  000F4A  6F8B               	movwf	(powf@sn+3)& (0+255),b
  2464  000F4C                     
  2465                           ; BSR set to: 1
  2466  000F4C  BF63               	btfsc	(powf@hx+3)& (0+255),7,b
  2467  000F4E  EFAD  F007         	goto	u3630
  2468  000F52  EFAB  F007         	goto	u3631
  2469  000F56                     u3631:
  2470  000F56  EF10  F008         	goto	l3325
  2471  000F5A                     u3630:
  2472  000F5A                     
  2473                           ; BSR set to: 1
  2474  000F5A  5150               	movf	powf@yisint& (0+255),w,b
  2475  000F5C  1151               	iorwf	(powf@yisint+1)& (0+255),w,b
  2476  000F5E  1152               	iorwf	(powf@yisint+2)& (0+255),w,b
  2477  000F60  1153               	iorwf	(powf@yisint+3)& (0+255),w,b
  2478  000F62  A4D8               	btfss	status,2,c
  2479  000F64  EFB6  F007         	goto	u3641
  2480  000F68  EFB8  F007         	goto	u3640
  2481  000F6C                     u3641:
  2482  000F6C  EFFD  F007         	goto	l3321
  2483  000F70                     u3640:
  2484  000F70                     
  2485                           ; BSR set to: 1
  2486  000F70  0E00               	movlw	0
  2487  000F72  0100               	movlb	0	; () banked
  2488  000F74  6FAB               	movwf	(_errno+1)& (0+255),b
  2489  000F76  0E21               	movlw	33
  2490  000F78  6FAA               	movwf	_errno& (0+255),b
  2491  000F7A                     
  2492                           ; BSR set to: 0
  2493  000F7A  C084  F02E         	movff	powf@x,___flsub@a
  2494  000F7E  C085  F02F         	movff	powf@x+1,___flsub@a+1
  2495  000F82  C086  F030         	movff	powf@x+2,___flsub@a+2
  2496  000F86  C087  F031         	movff	powf@x+3,___flsub@a+3
  2497  000F8A  C084  F02A         	movff	powf@x,___flsub@b
  2498  000F8E  C085  F02B         	movff	powf@x+1,___flsub@b+1
  2499  000F92  C086  F02C         	movff	powf@x+2,___flsub@b+2
  2500  000F96  C087  F02D         	movff	powf@x+3,___flsub@b+3
  2501  000F9A  ECE8  F028         	call	___flsub	;wreg free
  2502  000F9E  C02A  F032         	movff	?___flsub,___fldiv@b
  2503  000FA2  C02B  F033         	movff	?___flsub+1,___fldiv@b+1
  2504  000FA6  C02C  F034         	movff	?___flsub+2,___fldiv@b+2
  2505  000FAA  C02D  F035         	movff	?___flsub+3,___fldiv@b+3
  2506  000FAE  C084  F02E         	movff	powf@x,___flsub@a
  2507  000FB2  C085  F02F         	movff	powf@x+1,___flsub@a+1
  2508  000FB6  C086  F030         	movff	powf@x+2,___flsub@a+2
  2509  000FBA  C087  F031         	movff	powf@x+3,___flsub@a+3
  2510  000FBE  C084  F02A         	movff	powf@x,___flsub@b
  2511  000FC2  C085  F02B         	movff	powf@x+1,___flsub@b+1
  2512  000FC6  C086  F02C         	movff	powf@x+2,___flsub@b+2
  2513  000FCA  C087  F02D         	movff	powf@x+3,___flsub@b+3
  2514  000FCE  ECE8  F028         	call	___flsub	;wreg free
  2515  000FD2  C02A  F036         	movff	?___flsub,___fldiv@a
  2516  000FD6  C02B  F037         	movff	?___flsub+1,___fldiv@a+1
  2517  000FDA  C02C  F038         	movff	?___flsub+2,___fldiv@a+2
  2518  000FDE  C02D  F039         	movff	?___flsub+3,___fldiv@a+3
  2519  000FE2  ECCF  F021         	call	___fldiv	;wreg free
  2520  000FE6  C032  F084         	movff	?___fldiv,?_powf
  2521  000FEA  C033  F085         	movff	?___fldiv+1,?_powf+1
  2522  000FEE  C034  F086         	movff	?___fldiv+2,?_powf+2
  2523  000FF2  C035  F087         	movff	?___fldiv+3,?_powf+3
  2524  000FF6  EFBB  F018         	goto	l866
  2525  000FFA                     l3321:
  2526                           
  2527                           ; BSR set to: 1
  2528  000FFA  0550               	decf	powf@yisint& (0+255),w,b
  2529  000FFC  1151               	iorwf	(powf@yisint+1)& (0+255),w,b
  2530  000FFE  1152               	iorwf	(powf@yisint+2)& (0+255),w,b
  2531  001000  1153               	iorwf	(powf@yisint+3)& (0+255),w,b
  2532  001002  A4D8               	btfss	status,2,c
  2533  001004  EF06  F008         	goto	u3651
  2534  001008  EF08  F008         	goto	u3650
  2535  00100C                     u3651:
  2536  00100C  EF10  F008         	goto	l3325
  2537  001010                     u3650:
  2538  001010                     
  2539                           ; BSR set to: 1
  2540  001010  0E00               	movlw	0
  2541  001012  6F88               	movwf	powf@sn& (0+255),b
  2542  001014  0E00               	movlw	0
  2543  001016  6F89               	movwf	(powf@sn+1)& (0+255),b
  2544  001018  0E80               	movlw	128
  2545  00101A  6F8A               	movwf	(powf@sn+2)& (0+255),b
  2546  00101C  0EBF               	movlw	191
  2547  00101E  6F8B               	movwf	(powf@sn+3)& (0+255),b
  2548  001020                     l3325:
  2549                           
  2550                           ; BSR set to: 1
  2551  001020  BF9B               	btfsc	(powf@iy+3)& (0+255),7,b
  2552  001022  EF1F  F008         	goto	u3661
  2553  001026  0598               	decf	powf@iy& (0+255),w,b
  2554  001028  0E00               	movlw	0
  2555  00102A  5999               	subwfb	(powf@iy+1)& (0+255),w,b
  2556  00102C  0E00               	movlw	0
  2557  00102E  599A               	subwfb	(powf@iy+2)& (0+255),w,b
  2558  001030  0E4D               	movlw	77
  2559  001032  599B               	subwfb	(powf@iy+3)& (0+255),w,b
  2560  001034  A0D8               	btfss	status,0,c
  2561  001036  EF1F  F008         	goto	u3661
  2562  00103A  EF21  F008         	goto	u3660
  2563  00103E                     u3661:
  2564  00103E  EFA6  F00A         	goto	l3373
  2565  001042                     u3660:
  2566  001042                     
  2567                           ; BSR set to: 1
  2568  001042  BFAB               	btfsc	(powf@ix+3)& (0+255),7,b
  2569  001044  EF33  F008         	goto	u3670
  2570  001048  0EF8               	movlw	248
  2571  00104A  5DA8               	subwf	powf@ix& (0+255),w,b
  2572  00104C  0EFF               	movlw	255
  2573  00104E  59A9               	subwfb	(powf@ix+1)& (0+255),w,b
  2574  001050  0E7F               	movlw	127
  2575  001052  59AA               	subwfb	(powf@ix+2)& (0+255),w,b
  2576  001054  0E3F               	movlw	63
  2577  001056  59AB               	subwfb	(powf@ix+3)& (0+255),w,b
  2578  001058  B0D8               	btfsc	status,0,c
  2579  00105A  EF31  F008         	goto	u3671
  2580  00105E  EF33  F008         	goto	u3670
  2581  001062                     u3671:
  2582  001062  EFA6  F008         	goto	l3337
  2583  001066                     u3670:
  2584  001066                     
  2585                           ; BSR set to: 1
  2586  001066  BF87               	btfsc	(powf@hy+3)& (0+255),7,b
  2587  001068  EF38  F008         	goto	u3681
  2588  00106C  EF3A  F008         	goto	u3680
  2589  001070                     u3681:
  2590  001070  EF70  F008         	goto	l3333
  2591  001074                     u3680:
  2592  001074                     
  2593                           ; BSR set to: 1
  2594  001074  0E60               	movlw	96
  2595  001076  6E15               	movwf	___flmul@a^0,c
  2596  001078  0E42               	movlw	66
  2597  00107A  6E16               	movwf	(___flmul@a+1)^0,c
  2598  00107C  0EA2               	movlw	162
  2599  00107E  6E17               	movwf	(___flmul@a+2)^0,c
  2600  001080  0E0D               	movlw	13
  2601  001082  6E18               	movwf	(___flmul@a+3)^0,c
  2602  001084  C188  F011         	movff	powf@sn,___flmul@b
  2603  001088  C189  F012         	movff	powf@sn+1,___flmul@b+1
  2604  00108C  C18A  F013         	movff	powf@sn+2,___flmul@b+2
  2605  001090  C18B  F014         	movff	powf@sn+3,___flmul@b+3
  2606  001094  ECBA  F01F         	call	___flmul	;wreg free
  2607  001098  C011  F1A4         	movff	?___flmul,_powf$959
  2608  00109C  C012  F1A5         	movff	?___flmul+1,_powf$959+1
  2609  0010A0  C013  F1A6         	movff	?___flmul+2,_powf$959+2
  2610  0010A4  C014  F1A7         	movff	?___flmul+3,_powf$959+3
  2611  0010A8  C1A4  F011         	movff	_powf$959,___flmul@b
  2612  0010AC  C1A5  F012         	movff	_powf$959+1,___flmul@b+1
  2613  0010B0  C1A6  F013         	movff	_powf$959+2,___flmul@b+2
  2614  0010B4  C1A7  F014         	movff	_powf$959+3,___flmul@b+3
  2615  0010B8  0E60               	movlw	96
  2616  0010BA  6E15               	movwf	___flmul@a^0,c
  2617  0010BC  0E42               	movlw	66
  2618  0010BE  6E16               	movwf	(___flmul@a+1)^0,c
  2619  0010C0  0EA2               	movlw	162
  2620  0010C2  6E17               	movwf	(___flmul@a+2)^0,c
  2621  0010C4  0E0D               	movlw	13
  2622  0010C6  6E18               	movwf	(___flmul@a+3)^0,c
  2623  0010C8  ECBA  F01F         	call	___flmul	;wreg free
  2624  0010CC  C011  F084         	movff	?___flmul,?_powf
  2625  0010D0  C012  F085         	movff	?___flmul+1,?_powf+1
  2626  0010D4  C013  F086         	movff	?___flmul+2,?_powf+2
  2627  0010D8  C014  F087         	movff	?___flmul+3,?_powf+3
  2628  0010DC  EFBB  F018         	goto	l866
  2629  0010E0                     l3333:
  2630                           
  2631                           ; BSR set to: 1
  2632  0010E0  0ECA               	movlw	202
  2633  0010E2  6E15               	movwf	___flmul@a^0,c
  2634  0010E4  0EF2               	movlw	242
  2635  0010E6  6E16               	movwf	(___flmul@a+1)^0,c
  2636  0010E8  0E49               	movlw	73
  2637  0010EA  6E17               	movwf	(___flmul@a+2)^0,c
  2638  0010EC  0E71               	movlw	113
  2639  0010EE  6E18               	movwf	(___flmul@a+3)^0,c
  2640  0010F0  C188  F011         	movff	powf@sn,___flmul@b
  2641  0010F4  C189  F012         	movff	powf@sn+1,___flmul@b+1
  2642  0010F8  C18A  F013         	movff	powf@sn+2,___flmul@b+2
  2643  0010FC  C18B  F014         	movff	powf@sn+3,___flmul@b+3
  2644  001100  ECBA  F01F         	call	___flmul	;wreg free
  2645  001104  C011  F1A4         	movff	?___flmul,_powf$959
  2646  001108  C012  F1A5         	movff	?___flmul+1,_powf$959+1
  2647  00110C  C013  F1A6         	movff	?___flmul+2,_powf$959+2
  2648  001110  C014  F1A7         	movff	?___flmul+3,_powf$959+3
  2649  001114  C1A4  F011         	movff	_powf$959,___flmul@b
  2650  001118  C1A5  F012         	movff	_powf$959+1,___flmul@b+1
  2651  00111C  C1A6  F013         	movff	_powf$959+2,___flmul@b+2
  2652  001120  C1A7  F014         	movff	_powf$959+3,___flmul@b+3
  2653  001124  0ECA               	movlw	202
  2654  001126  6E15               	movwf	___flmul@a^0,c
  2655  001128  0EF2               	movlw	242
  2656  00112A  6E16               	movwf	(___flmul@a+1)^0,c
  2657  00112C  0E49               	movlw	73
  2658  00112E  6E17               	movwf	(___flmul@a+2)^0,c
  2659  001130  0E71               	movlw	113
  2660  001132  6E18               	movwf	(___flmul@a+3)^0,c
  2661  001134  ECBA  F01F         	call	___flmul	;wreg free
  2662  001138  C011  F084         	movff	?___flmul,?_powf
  2663  00113C  C012  F085         	movff	?___flmul+1,?_powf+1
  2664  001140  C013  F086         	movff	?___flmul+2,?_powf+2
  2665  001144  C014  F087         	movff	?___flmul+3,?_powf+3
  2666  001148  EFBB  F018         	goto	l866
  2667  00114C                     l3337:
  2668                           
  2669                           ; BSR set to: 1
  2670  00114C  BFAB               	btfsc	(powf@ix+3)& (0+255),7,b
  2671  00114E  EFB6  F008         	goto	u3691
  2672  001152  0E08               	movlw	8
  2673  001154  5DA8               	subwf	powf@ix& (0+255),w,b
  2674  001156  0E00               	movlw	0
  2675  001158  59A9               	subwfb	(powf@ix+1)& (0+255),w,b
  2676  00115A  0E80               	movlw	128
  2677  00115C  59AA               	subwfb	(powf@ix+2)& (0+255),w,b
  2678  00115E  0E3F               	movlw	63
  2679  001160  59AB               	subwfb	(powf@ix+3)& (0+255),w,b
  2680  001162  A0D8               	btfss	status,0,c
  2681  001164  EFB6  F008         	goto	u3691
  2682  001168  EFB8  F008         	goto	u3690
  2683  00116C                     u3691:
  2684  00116C  EF33  F009         	goto	l3347
  2685  001170                     u3690:
  2686  001170                     
  2687                           ; BSR set to: 1
  2688  001170  BF87               	btfsc	(powf@hy+3)& (0+255),7,b
  2689  001172  EFC7  F008         	goto	u3700
  2690  001176  5187               	movf	(powf@hy+3)& (0+255),w,b
  2691  001178  1186               	iorwf	(powf@hy+2)& (0+255),w,b
  2692  00117A  1185               	iorwf	(powf@hy+1)& (0+255),w,b
  2693  00117C  E106               	bnz	u3701
  2694  00117E  0584               	decf	powf@hy& (0+255),w,b
  2695  001180  B0D8               	btfsc	status,0,c
  2696  001182  EFC5  F008         	goto	u3701
  2697  001186  EFC7  F008         	goto	u3700
  2698  00118A                     u3701:
  2699  00118A  EFFD  F008         	goto	l3343
  2700  00118E                     u3700:
  2701  00118E                     
  2702                           ; BSR set to: 1
  2703  00118E  0E60               	movlw	96
  2704  001190  6E15               	movwf	___flmul@a^0,c
  2705  001192  0E42               	movlw	66
  2706  001194  6E16               	movwf	(___flmul@a+1)^0,c
  2707  001196  0EA2               	movlw	162
  2708  001198  6E17               	movwf	(___flmul@a+2)^0,c
  2709  00119A  0E0D               	movlw	13
  2710  00119C  6E18               	movwf	(___flmul@a+3)^0,c
  2711  00119E  C188  F011         	movff	powf@sn,___flmul@b
  2712  0011A2  C189  F012         	movff	powf@sn+1,___flmul@b+1
  2713  0011A6  C18A  F013         	movff	powf@sn+2,___flmul@b+2
  2714  0011AA  C18B  F014         	movff	powf@sn+3,___flmul@b+3
  2715  0011AE  ECBA  F01F         	call	___flmul	;wreg free
  2716  0011B2  C011  F1A4         	movff	?___flmul,_powf$959
  2717  0011B6  C012  F1A5         	movff	?___flmul+1,_powf$959+1
  2718  0011BA  C013  F1A6         	movff	?___flmul+2,_powf$959+2
  2719  0011BE  C014  F1A7         	movff	?___flmul+3,_powf$959+3
  2720  0011C2  C1A4  F011         	movff	_powf$959,___flmul@b
  2721  0011C6  C1A5  F012         	movff	_powf$959+1,___flmul@b+1
  2722  0011CA  C1A6  F013         	movff	_powf$959+2,___flmul@b+2
  2723  0011CE  C1A7  F014         	movff	_powf$959+3,___flmul@b+3
  2724  0011D2  0E60               	movlw	96
  2725  0011D4  6E15               	movwf	___flmul@a^0,c
  2726  0011D6  0E42               	movlw	66
  2727  0011D8  6E16               	movwf	(___flmul@a+1)^0,c
  2728  0011DA  0EA2               	movlw	162
  2729  0011DC  6E17               	movwf	(___flmul@a+2)^0,c
  2730  0011DE  0E0D               	movlw	13
  2731  0011E0  6E18               	movwf	(___flmul@a+3)^0,c
  2732  0011E2  ECBA  F01F         	call	___flmul	;wreg free
  2733  0011E6  C011  F084         	movff	?___flmul,?_powf
  2734  0011EA  C012  F085         	movff	?___flmul+1,?_powf+1
  2735  0011EE  C013  F086         	movff	?___flmul+2,?_powf+2
  2736  0011F2  C014  F087         	movff	?___flmul+3,?_powf+3
  2737  0011F6  EFBB  F018         	goto	l866
  2738  0011FA                     l3343:
  2739                           
  2740                           ; BSR set to: 1
  2741  0011FA  0ECA               	movlw	202
  2742  0011FC  6E15               	movwf	___flmul@a^0,c
  2743  0011FE  0EF2               	movlw	242
  2744  001200  6E16               	movwf	(___flmul@a+1)^0,c
  2745  001202  0E49               	movlw	73
  2746  001204  6E17               	movwf	(___flmul@a+2)^0,c
  2747  001206  0E71               	movlw	113
  2748  001208  6E18               	movwf	(___flmul@a+3)^0,c
  2749  00120A  C188  F011         	movff	powf@sn,___flmul@b
  2750  00120E  C189  F012         	movff	powf@sn+1,___flmul@b+1
  2751  001212  C18A  F013         	movff	powf@sn+2,___flmul@b+2
  2752  001216  C18B  F014         	movff	powf@sn+3,___flmul@b+3
  2753  00121A  ECBA  F01F         	call	___flmul	;wreg free
  2754  00121E  C011  F1A4         	movff	?___flmul,_powf$959
  2755  001222  C012  F1A5         	movff	?___flmul+1,_powf$959+1
  2756  001226  C013  F1A6         	movff	?___flmul+2,_powf$959+2
  2757  00122A  C014  F1A7         	movff	?___flmul+3,_powf$959+3
  2758  00122E  C1A4  F011         	movff	_powf$959,___flmul@b
  2759  001232  C1A5  F012         	movff	_powf$959+1,___flmul@b+1
  2760  001236  C1A6  F013         	movff	_powf$959+2,___flmul@b+2
  2761  00123A  C1A7  F014         	movff	_powf$959+3,___flmul@b+3
  2762  00123E  0ECA               	movlw	202
  2763  001240  6E15               	movwf	___flmul@a^0,c
  2764  001242  0EF2               	movlw	242
  2765  001244  6E16               	movwf	(___flmul@a+1)^0,c
  2766  001246  0E49               	movlw	73
  2767  001248  6E17               	movwf	(___flmul@a+2)^0,c
  2768  00124A  0E71               	movlw	113
  2769  00124C  6E18               	movwf	(___flmul@a+3)^0,c
  2770  00124E  ECBA  F01F         	call	___flmul	;wreg free
  2771  001252  C011  F084         	movff	?___flmul,?_powf
  2772  001256  C012  F085         	movff	?___flmul+1,?_powf+1
  2773  00125A  C013  F086         	movff	?___flmul+2,?_powf+2
  2774  00125E  C014  F087         	movff	?___flmul+3,?_powf+3
  2775  001262  EFBB  F018         	goto	l866
  2776  001266                     l3347:
  2777                           
  2778                           ; BSR set to: 1
  2779  001266  C170  F001         	movff	powf@ax,___fladd@b
  2780  00126A  C171  F002         	movff	powf@ax+1,___fladd@b+1
  2781  00126E  C172  F003         	movff	powf@ax+2,___fladd@b+2
  2782  001272  C173  F004         	movff	powf@ax+3,___fladd@b+3
  2783  001276  0E00               	movlw	0
  2784  001278  6E05               	movwf	___fladd@a^0,c
  2785  00127A  0E00               	movlw	0
  2786  00127C  6E06               	movwf	(___fladd@a+1)^0,c
  2787  00127E  0E80               	movlw	128
  2788  001280  6E07               	movwf	(___fladd@a+2)^0,c
  2789  001282  0EBF               	movlw	191
  2790  001284  6E08               	movwf	(___fladd@a+3)^0,c
  2791  001286  EC1C  F01B         	call	___fladd	;wreg free
  2792  00128A  C001  F1B0         	movff	?___fladd,powf@t
  2793  00128E  C002  F1B1         	movff	?___fladd+1,powf@t+1
  2794  001292  C003  F1B2         	movff	?___fladd+2,powf@t+2
  2795  001296  C004  F1B3         	movff	?___fladd+3,powf@t+3
  2796  00129A  0E00               	movlw	0
  2797  00129C  6E15               	movwf	___flmul@a^0,c
  2798  00129E  0E00               	movlw	0
  2799  0012A0  6E16               	movwf	(___flmul@a+1)^0,c
  2800  0012A2  0E80               	movlw	128
  2801  0012A4  6E17               	movwf	(___flmul@a+2)^0,c
  2802  0012A6  0E3E               	movlw	62
  2803  0012A8  6E18               	movwf	(___flmul@a+3)^0,c
  2804  0012AA  C1B0  F011         	movff	powf@t,___flmul@b
  2805  0012AE  C1B1  F012         	movff	powf@t+1,___flmul@b+1
  2806  0012B2  C1B2  F013         	movff	powf@t+2,___flmul@b+2
  2807  0012B6  C1B3  F014         	movff	powf@t+3,___flmul@b+3
  2808  0012BA  ECBA  F01F         	call	___flmul	;wreg free
  2809  0012BE  C011  F02E         	movff	?___flmul,___flsub@a
  2810  0012C2  C012  F02F         	movff	?___flmul+1,___flsub@a+1
  2811  0012C6  C013  F030         	movff	?___flmul+2,___flsub@a+2
  2812  0012CA  C014  F031         	movff	?___flmul+3,___flsub@a+3
  2813  0012CE  0EAB               	movlw	171
  2814  0012D0  6E2A               	movwf	___flsub@b^0,c
  2815  0012D2  0EAA               	movlw	170
  2816  0012D4  6E2B               	movwf	(___flsub@b+1)^0,c
  2817  0012D6  0EAA               	movlw	170
  2818  0012D8  6E2C               	movwf	(___flsub@b+2)^0,c
  2819  0012DA  0E3E               	movlw	62
  2820  0012DC  6E2D               	movwf	(___flsub@b+3)^0,c
  2821  0012DE  ECE8  F028         	call	___flsub	;wreg free
  2822  0012E2  C02A  F1A4         	movff	?___flsub,_powf$959
  2823  0012E6  C02B  F1A5         	movff	?___flsub+1,_powf$959+1
  2824  0012EA  C02C  F1A6         	movff	?___flsub+2,_powf$959+2
  2825  0012EE  C02D  F1A7         	movff	?___flsub+3,_powf$959+3
  2826  0012F2  C1B0  F015         	movff	powf@t,___flmul@a
  2827  0012F6  C1B1  F016         	movff	powf@t+1,___flmul@a+1
  2828  0012FA  C1B2  F017         	movff	powf@t+2,___flmul@a+2
  2829  0012FE  C1B3  F018         	movff	powf@t+3,___flmul@a+3
  2830  001302  C1B0  F011         	movff	powf@t,___flmul@b
  2831  001306  C1B1  F012         	movff	powf@t+1,___flmul@b+1
  2832  00130A  C1B2  F013         	movff	powf@t+2,___flmul@b+2
  2833  00130E  C1B3  F014         	movff	powf@t+3,___flmul@b+3
  2834  001312  ECBA  F01F         	call	___flmul	;wreg free
  2835  001316  C011  F154         	movff	?___flmul,_powf$960
  2836  00131A  C012  F155         	movff	?___flmul+1,_powf$960+1
  2837  00131E  C013  F156         	movff	?___flmul+2,_powf$960+2
  2838  001322  C014  F157         	movff	?___flmul+3,_powf$960+3
  2839  001326  C1B0  F015         	movff	powf@t,___flmul@a
  2840  00132A  C1B1  F016         	movff	powf@t+1,___flmul@a+1
  2841  00132E  C1B2  F017         	movff	powf@t+2,___flmul@a+2
  2842  001332  C1B3  F018         	movff	powf@t+3,___flmul@a+3
  2843  001336  C1A4  F011         	movff	_powf$959,___flmul@b
  2844  00133A  C1A5  F012         	movff	_powf$959+1,___flmul@b+1
  2845  00133E  C1A6  F013         	movff	_powf$959+2,___flmul@b+2
  2846  001342  C1A7  F014         	movff	_powf$959+3,___flmul@b+3
  2847  001346  ECBA  F01F         	call	___flmul	;wreg free
  2848  00134A  C011  F02E         	movff	?___flmul,___flsub@a
  2849  00134E  C012  F02F         	movff	?___flmul+1,___flsub@a+1
  2850  001352  C013  F030         	movff	?___flmul+2,___flsub@a+2
  2851  001356  C014  F031         	movff	?___flmul+3,___flsub@a+3
  2852  00135A  0E00               	movlw	0
  2853  00135C  6E2A               	movwf	___flsub@b^0,c
  2854  00135E  0E00               	movlw	0
  2855  001360  6E2B               	movwf	(___flsub@b+1)^0,c
  2856  001362  0E00               	movlw	0
  2857  001364  6E2C               	movwf	(___flsub@b+2)^0,c
  2858  001366  0E3F               	movlw	63
  2859  001368  6E2D               	movwf	(___flsub@b+3)^0,c
  2860  00136A  ECE8  F028         	call	___flsub	;wreg free
  2861  00136E  C02A  F148         	movff	?___flsub,_powf$961
  2862  001372  C02B  F149         	movff	?___flsub+1,_powf$961+1
  2863  001376  C02C  F14A         	movff	?___flsub+2,_powf$961+2
  2864  00137A  C02D  F14B         	movff	?___flsub+3,_powf$961+3
  2865  00137E  C154  F011         	movff	_powf$960,___flmul@b
  2866  001382  C155  F012         	movff	_powf$960+1,___flmul@b+1
  2867  001386  C156  F013         	movff	_powf$960+2,___flmul@b+2
  2868  00138A  C157  F014         	movff	_powf$960+3,___flmul@b+3
  2869  00138E  C148  F015         	movff	_powf$961,___flmul@a
  2870  001392  C149  F016         	movff	_powf$961+1,___flmul@a+1
  2871  001396  C14A  F017         	movff	_powf$961+2,___flmul@a+2
  2872  00139A  C14B  F018         	movff	_powf$961+3,___flmul@a+3
  2873  00139E  ECBA  F01F         	call	___flmul	;wreg free
  2874  0013A2  C011  F144         	movff	?___flmul,powf@w
  2875  0013A6  C012  F145         	movff	?___flmul+1,powf@w+1
  2876  0013AA  C013  F146         	movff	?___flmul+2,powf@w+2
  2877  0013AE  C014  F147         	movff	?___flmul+3,powf@w+3
  2878  0013B2  C1B0  F011         	movff	powf@t,___flmul@b
  2879  0013B6  C1B1  F012         	movff	powf@t+1,___flmul@b+1
  2880  0013BA  C1B2  F013         	movff	powf@t+2,___flmul@b+2
  2881  0013BE  C1B3  F014         	movff	powf@t+3,___flmul@b+3
  2882  0013C2  0E00               	movlw	0
  2883  0013C4  6E15               	movwf	___flmul@a^0,c
  2884  0013C6  0EAA               	movlw	170
  2885  0013C8  6E16               	movwf	(___flmul@a+1)^0,c
  2886  0013CA  0EB8               	movlw	184
  2887  0013CC  6E17               	movwf	(___flmul@a+2)^0,c
  2888  0013CE  0E3F               	movlw	63
  2889  0013D0  6E18               	movwf	(___flmul@a+3)^0,c
  2890  0013D2  ECBA  F01F         	call	___flmul	;wreg free
  2891  0013D6  C011  F174         	movff	?___flmul,powf@u
  2892  0013DA  C012  F175         	movff	?___flmul+1,powf@u+1
  2893  0013DE  C013  F176         	movff	?___flmul+2,powf@u+2
  2894  0013E2  C014  F177         	movff	?___flmul+3,powf@u+3
  2895  0013E6  0E70               	movlw	112
  2896  0013E8  6E15               	movwf	___flmul@a^0,c
  2897  0013EA  0EA5               	movlw	165
  2898  0013EC  6E16               	movwf	(___flmul@a+1)^0,c
  2899  0013EE  0EEC               	movlw	236
  2900  0013F0  6E17               	movwf	(___flmul@a+2)^0,c
  2901  0013F2  0E36               	movlw	54
  2902  0013F4  6E18               	movwf	(___flmul@a+3)^0,c
  2903  0013F6  C1B0  F011         	movff	powf@t,___flmul@b
  2904  0013FA  C1B1  F012         	movff	powf@t+1,___flmul@b+1
  2905  0013FE  C1B2  F013         	movff	powf@t+2,___flmul@b+2
  2906  001402  C1B3  F014         	movff	powf@t+3,___flmul@b+3
  2907  001406  ECBA  F01F         	call	___flmul	;wreg free
  2908  00140A  C011  F02A         	movff	?___flmul,___flsub@b
  2909  00140E  C012  F02B         	movff	?___flmul+1,___flsub@b+1
  2910  001412  C013  F02C         	movff	?___flmul+2,___flsub@b+2
  2911  001416  C014  F02D         	movff	?___flmul+3,___flsub@b+3
  2912  00141A  0E3B               	movlw	59
  2913  00141C  6E15               	movwf	___flmul@a^0,c
  2914  00141E  0EAA               	movlw	170
  2915  001420  6E16               	movwf	(___flmul@a+1)^0,c
  2916  001422  0EB8               	movlw	184
  2917  001424  6E17               	movwf	(___flmul@a+2)^0,c
  2918  001426  0E3F               	movlw	63
  2919  001428  6E18               	movwf	(___flmul@a+3)^0,c
  2920  00142A  C144  F011         	movff	powf@w,___flmul@b
  2921  00142E  C145  F012         	movff	powf@w+1,___flmul@b+1
  2922  001432  C146  F013         	movff	powf@w+2,___flmul@b+2
  2923  001436  C147  F014         	movff	powf@w+3,___flmul@b+3
  2924  00143A  ECBA  F01F         	call	___flmul	;wreg free
  2925  00143E  C011  F02E         	movff	?___flmul,___flsub@a
  2926  001442  C012  F02F         	movff	?___flmul+1,___flsub@a+1
  2927  001446  C013  F030         	movff	?___flmul+2,___flsub@a+2
  2928  00144A  C014  F031         	movff	?___flmul+3,___flsub@a+3
  2929  00144E  ECE8  F028         	call	___flsub	;wreg free
  2930  001452  C02A  F178         	movff	?___flsub,powf@v
  2931  001456  C02B  F179         	movff	?___flsub+1,powf@v+1
  2932  00145A  C02C  F17A         	movff	?___flsub+2,powf@v+2
  2933  00145E  C02D  F17B         	movff	?___flsub+3,powf@v+3
  2934  001462  C174  F001         	movff	powf@u,___fladd@b
  2935  001466  C175  F002         	movff	powf@u+1,___fladd@b+1
  2936  00146A  C176  F003         	movff	powf@u+2,___fladd@b+2
  2937  00146E  C177  F004         	movff	powf@u+3,___fladd@b+3
  2938  001472  C178  F005         	movff	powf@v,___fladd@a
  2939  001476  C179  F006         	movff	powf@v+1,___fladd@a+1
  2940  00147A  C17A  F007         	movff	powf@v+2,___fladd@a+2
  2941  00147E  C17B  F008         	movff	powf@v+3,___fladd@a+3
  2942  001482  EC1C  F01B         	call	___fladd	;wreg free
  2943  001486  C001  F180         	movff	?___fladd,powf@t1
  2944  00148A  C002  F181         	movff	?___fladd+1,powf@t1+1
  2945  00148E  C003  F182         	movff	?___fladd+2,powf@t1+2
  2946  001492  C004  F183         	movff	?___fladd+3,powf@t1+3
  2947  001496  C180  F1B8         	movff	powf@t1,powf@__xc8_float_word
  2948  00149A  C181  F1B9         	movff	powf@t1+1,powf@__xc8_float_word+1
  2949  00149E  C182  F1BA         	movff	powf@t1+2,powf@__xc8_float_word+2
  2950  0014A2  C183  F1BB         	movff	powf@t1+3,powf@__xc8_float_word+3
  2951  0014A6  C1B8  F190         	movff	powf@__xc8_float_word,powf@is
  2952  0014AA  C1B9  F191         	movff	powf@__xc8_float_word+1,powf@is+1
  2953  0014AE  C1BA  F192         	movff	powf@__xc8_float_word+2,powf@is+2
  2954  0014B2  C1BB  F193         	movff	powf@__xc8_float_word+3,powf@is+3
  2955  0014B6  0E00               	movlw	0
  2956  0014B8  0101               	movlb	1	; () banked
  2957  0014BA  1590               	andwf	powf@is& (0+255),w,b
  2958  0014BC  6FB8               	movwf	powf@__xc8_float_word& (0+255),b
  2959  0014BE  0EF0               	movlw	240
  2960  0014C0  1591               	andwf	(powf@is+1)& (0+255),w,b
  2961  0014C2  6FB9               	movwf	(powf@__xc8_float_word+1)& (0+255),b
  2962  0014C4  0EFF               	movlw	255
  2963  0014C6  1592               	andwf	(powf@is+2)& (0+255),w,b
  2964  0014C8  6FBA               	movwf	(powf@__xc8_float_word+2)& (0+255),b
  2965  0014CA  0EFF               	movlw	255
  2966  0014CC  1593               	andwf	(powf@is+3)& (0+255),w,b
  2967  0014CE  6FBB               	movwf	(powf@__xc8_float_word+3)& (0+255),b
  2968  0014D0                     
  2969                           ; BSR set to: 1
  2970  0014D0  C1B8  F180         	movff	powf@__xc8_float_word,powf@t1
  2971  0014D4  C1B9  F181         	movff	powf@__xc8_float_word+1,powf@t1+1
  2972  0014D8  C1BA  F182         	movff	powf@__xc8_float_word+2,powf@t1+2
  2973  0014DC  C1BB  F183         	movff	powf@__xc8_float_word+3,powf@t1+3
  2974  0014E0                     
  2975                           ; BSR set to: 1
  2976  0014E0  C174  F02E         	movff	powf@u,___flsub@a
  2977  0014E4  C175  F02F         	movff	powf@u+1,___flsub@a+1
  2978  0014E8  C176  F030         	movff	powf@u+2,___flsub@a+2
  2979  0014EC  C177  F031         	movff	powf@u+3,___flsub@a+3
  2980  0014F0  C180  F02A         	movff	powf@t1,___flsub@b
  2981  0014F4  C181  F02B         	movff	powf@t1+1,___flsub@b+1
  2982  0014F8  C182  F02C         	movff	powf@t1+2,___flsub@b+2
  2983  0014FC  C183  F02D         	movff	powf@t1+3,___flsub@b+3
  2984  001500  ECE8  F028         	call	___flsub	;wreg free
  2985  001504  C02A  F194         	movff	?___flsub,_powf$962
  2986  001508  C02B  F195         	movff	?___flsub+1,_powf$962+1
  2987  00150C  C02C  F196         	movff	?___flsub+2,_powf$962+2
  2988  001510  C02D  F197         	movff	?___flsub+3,_powf$962+3
  2989  001514  C178  F02A         	movff	powf@v,___flsub@b
  2990  001518  C179  F02B         	movff	powf@v+1,___flsub@b+1
  2991  00151C  C17A  F02C         	movff	powf@v+2,___flsub@b+2
  2992  001520  C17B  F02D         	movff	powf@v+3,___flsub@b+3
  2993  001524  C194  F02E         	movff	_powf$962,___flsub@a
  2994  001528  C195  F02F         	movff	_powf$962+1,___flsub@a+1
  2995  00152C  C196  F030         	movff	_powf$962+2,___flsub@a+2
  2996  001530  C197  F031         	movff	_powf$962+3,___flsub@a+3
  2997  001534  ECE8  F028         	call	___flsub	;wreg free
  2998  001538  C02A  F11C         	movff	?___flsub,powf@t2
  2999  00153C  C02B  F11D         	movff	?___flsub+1,powf@t2+1
  3000  001540  C02C  F11E         	movff	?___flsub+2,powf@t2+2
  3001  001544  C02D  F11F         	movff	?___flsub+3,powf@t2+3
  3002  001548  EFEE  F011         	goto	l3529
  3003  00154C                     l3373:
  3004                           
  3005                           ; BSR set to: 1
  3006  00154C  0E00               	movlw	0
  3007  00154E  6F7C               	movwf	powf@n& (0+255),b
  3008  001550  0E00               	movlw	0
  3009  001552  6F7D               	movwf	(powf@n+1)& (0+255),b
  3010  001554  0E00               	movlw	0
  3011  001556  6F7E               	movwf	(powf@n+2)& (0+255),b
  3012  001558  0E00               	movlw	0
  3013  00155A  6F7F               	movwf	(powf@n+3)& (0+255),b
  3014  00155C                     
  3015                           ; BSR set to: 1
  3016  00155C  BFAB               	btfsc	(powf@ix+3)& (0+255),7,b
  3017  00155E  EFBC  F00A         	goto	u3710
  3018  001562  51AB               	movf	(powf@ix+3)& (0+255),w,b
  3019  001564  E107               	bnz	u3711
  3020  001566  0E80               	movlw	128
  3021  001568  5DAA               	subwf	(powf@ix+2)& (0+255),w,b
  3022  00156A  B0D8               	btfsc	status,0,c
  3023  00156C  EFBA  F00A         	goto	u3711
  3024  001570  EFBC  F00A         	goto	u3710
  3025  001574                     u3711:
  3026  001574  EFEF  F00A         	goto	l3385
  3027  001578                     u3710:
  3028  001578                     
  3029                           ; BSR set to: 1
  3030  001578  C170  F011         	movff	powf@ax,___flmul@b
  3031  00157C  C171  F012         	movff	powf@ax+1,___flmul@b+1
  3032  001580  C172  F013         	movff	powf@ax+2,___flmul@b+2
  3033  001584  C173  F014         	movff	powf@ax+3,___flmul@b+3
  3034  001588  0E00               	movlw	0
  3035  00158A  6E15               	movwf	___flmul@a^0,c
  3036  00158C  0E00               	movlw	0
  3037  00158E  6E16               	movwf	(___flmul@a+1)^0,c
  3038  001590  0E80               	movlw	128
  3039  001592  6E17               	movwf	(___flmul@a+2)^0,c
  3040  001594  0E4B               	movlw	75
  3041  001596  6E18               	movwf	(___flmul@a+3)^0,c
  3042  001598  ECBA  F01F         	call	___flmul	;wreg free
  3043  00159C  C011  F170         	movff	?___flmul,powf@ax
  3044  0015A0  C012  F171         	movff	?___flmul+1,powf@ax+1
  3045  0015A4  C013  F172         	movff	?___flmul+2,powf@ax+2
  3046  0015A8  C014  F173         	movff	?___flmul+3,powf@ax+3
  3047  0015AC  0EE8               	movlw	232
  3048  0015AE  0101               	movlb	1	; () banked
  3049  0015B0  277C               	addwf	powf@n& (0+255),f,b
  3050  0015B2  0EFF               	movlw	255
  3051  0015B4  237D               	addwfc	(powf@n+1)& (0+255),f,b
  3052  0015B6  0EFF               	movlw	255
  3053  0015B8  237E               	addwfc	(powf@n+2)& (0+255),f,b
  3054  0015BA  0EFF               	movlw	255
  3055  0015BC  237F               	addwfc	(powf@n+3)& (0+255),f,b
  3056  0015BE                     
  3057                           ; BSR set to: 1
  3058  0015BE  C170  F1B8         	movff	powf@ax,powf@__xc8_float_word
  3059  0015C2  C171  F1B9         	movff	powf@ax+1,powf@__xc8_float_word+1
  3060  0015C6  C172  F1BA         	movff	powf@ax+2,powf@__xc8_float_word+2
  3061  0015CA  C173  F1BB         	movff	powf@ax+3,powf@__xc8_float_word+3
  3062  0015CE                     
  3063                           ; BSR set to: 1
  3064  0015CE  C1B8  F1A8         	movff	powf@__xc8_float_word,powf@ix
  3065  0015D2  C1B9  F1A9         	movff	powf@__xc8_float_word+1,powf@ix+1
  3066  0015D6  C1BA  F1AA         	movff	powf@__xc8_float_word+2,powf@ix+2
  3067  0015DA  C1BB  F1AB         	movff	powf@__xc8_float_word+3,powf@ix+3
  3068  0015DE                     l3385:
  3069                           
  3070                           ; BSR set to: 1
  3071  0015DE  0E17               	movlw	23
  3072  0015E0  6E4B               	movwf	??_powf^0,c
  3073  0015E2  C1A8  F04C         	movff	powf@ix,??_powf+1
  3074  0015E6  C1A9  F04D         	movff	powf@ix+1,??_powf+2
  3075  0015EA  C1AA  F04E         	movff	powf@ix+2,??_powf+3
  3076  0015EE  C1AB  F04F         	movff	powf@ix+3,??_powf+4
  3077  0015F2                     u3725:
  3078  0015F2  664B               	tstfsz	??_powf^0,c
  3079  0015F4  EFFE  F00A         	goto	u3726
  3080  0015F8  EF06  F00B         	goto	u3727
  3081  0015FC                     u3726:
  3082  0015FC  344F               	rlcf	(??_powf+4)^0,w,c
  3083  0015FE  324F               	rrcf	(??_powf+4)^0,f,c
  3084  001600  324E               	rrcf	(??_powf+3)^0,f,c
  3085  001602  324D               	rrcf	(??_powf+2)^0,f,c
  3086  001604  324C               	rrcf	(??_powf+1)^0,f,c
  3087  001606  2E4B               	decfsz	??_powf^0,f,c
  3088  001608  EFF9  F00A         	goto	u3725
  3089  00160C                     u3727:
  3090  00160C  0E81               	movlw	129
  3091  00160E  244C               	addwf	(??_powf+1)^0,w,c
  3092  001610  6E50               	movwf	(??_powf+5)^0,c
  3093  001612  0EFF               	movlw	255
  3094  001614  204D               	addwfc	(??_powf+2)^0,w,c
  3095  001616  6E51               	movwf	(??_powf+6)^0,c
  3096  001618  0EFF               	movlw	255
  3097  00161A  204E               	addwfc	(??_powf+3)^0,w,c
  3098  00161C  6E52               	movwf	(??_powf+7)^0,c
  3099  00161E  0EFF               	movlw	255
  3100  001620  204F               	addwfc	(??_powf+4)^0,w,c
  3101  001622  6E53               	movwf	(??_powf+8)^0,c
  3102  001624  5050               	movf	(??_powf+5)^0,w,c
  3103  001626  0101               	movlb	1	; () banked
  3104  001628  277C               	addwf	powf@n& (0+255),f,b
  3105  00162A  5051               	movf	(??_powf+6)^0,w,c
  3106  00162C  237D               	addwfc	(powf@n+1)& (0+255),f,b
  3107  00162E  5052               	movf	(??_powf+7)^0,w,c
  3108  001630  237E               	addwfc	(powf@n+2)& (0+255),f,b
  3109  001632  5053               	movf	(??_powf+8)^0,w,c
  3110  001634  237F               	addwfc	(powf@n+3)& (0+255),f,b
  3111  001636                     
  3112                           ; BSR set to: 1
  3113  001636  0EFF               	movlw	255
  3114  001638  15A8               	andwf	powf@ix& (0+255),w,b
  3115  00163A  6FAC               	movwf	powf@j& (0+255),b
  3116  00163C  0EFF               	movlw	255
  3117  00163E  15A9               	andwf	(powf@ix+1)& (0+255),w,b
  3118  001640  6FAD               	movwf	(powf@j+1)& (0+255),b
  3119  001642  0E7F               	movlw	127
  3120  001644  15AA               	andwf	(powf@ix+2)& (0+255),w,b
  3121  001646  6FAE               	movwf	(powf@j+2)& (0+255),b
  3122  001648  0E00               	movlw	0
  3123  00164A  15AB               	andwf	(powf@ix+3)& (0+255),w,b
  3124  00164C  6FAF               	movwf	(powf@j+3)& (0+255),b
  3125  00164E                     
  3126                           ; BSR set to: 1
  3127  00164E  0E00               	movlw	0
  3128  001650  11AC               	iorwf	powf@j& (0+255),w,b
  3129  001652  6FA8               	movwf	powf@ix& (0+255),b
  3130  001654  0E00               	movlw	0
  3131  001656  11AD               	iorwf	(powf@j+1)& (0+255),w,b
  3132  001658  6FA9               	movwf	(powf@ix+1)& (0+255),b
  3133  00165A  0E80               	movlw	128
  3134  00165C  11AE               	iorwf	(powf@j+2)& (0+255),w,b
  3135  00165E  6FAA               	movwf	(powf@ix+2)& (0+255),b
  3136  001660  0E3F               	movlw	63
  3137  001662  11AF               	iorwf	(powf@j+3)& (0+255),w,b
  3138  001664  6FAB               	movwf	(powf@ix+3)& (0+255),b
  3139  001666                     
  3140                           ; BSR set to: 1
  3141  001666  BFAF               	btfsc	(powf@j+3)& (0+255),7,b
  3142  001668  EF45  F00B         	goto	u3730
  3143  00166C  51AF               	movf	(powf@j+3)& (0+255),w,b
  3144  00166E  E10B               	bnz	u3731
  3145  001670  0E72               	movlw	114
  3146  001672  5DAC               	subwf	powf@j& (0+255),w,b
  3147  001674  0EC4               	movlw	196
  3148  001676  59AD               	subwfb	(powf@j+1)& (0+255),w,b
  3149  001678  0E1C               	movlw	28
  3150  00167A  59AE               	subwfb	(powf@j+2)& (0+255),w,b
  3151  00167C  B0D8               	btfsc	status,0,c
  3152  00167E  EF43  F00B         	goto	u3731
  3153  001682  EF45  F00B         	goto	u3730
  3154  001686                     u3731:
  3155  001686  EF4F  F00B         	goto	l3395
  3156  00168A                     u3730:
  3157  00168A                     
  3158                           ; BSR set to: 1
  3159  00168A  0E00               	movlw	0
  3160  00168C  6FA0               	movwf	powf@k& (0+255),b
  3161  00168E  0E00               	movlw	0
  3162  001690  6FA1               	movwf	(powf@k+1)& (0+255),b
  3163  001692  0E00               	movlw	0
  3164  001694  6FA2               	movwf	(powf@k+2)& (0+255),b
  3165  001696  0E00               	movlw	0
  3166  001698  6FA3               	movwf	(powf@k+3)& (0+255),b
  3167  00169A  EF81  F00B         	goto	l3405
  3168  00169E                     l3395:
  3169                           
  3170                           ; BSR set to: 1
  3171  00169E  BFAF               	btfsc	(powf@j+3)& (0+255),7,b
  3172  0016A0  EF61  F00B         	goto	u3740
  3173  0016A4  51AF               	movf	(powf@j+3)& (0+255),w,b
  3174  0016A6  E10B               	bnz	u3741
  3175  0016A8  0ED7               	movlw	215
  3176  0016AA  5DAC               	subwf	powf@j& (0+255),w,b
  3177  0016AC  0EB3               	movlw	179
  3178  0016AE  59AD               	subwfb	(powf@j+1)& (0+255),w,b
  3179  0016B0  0E5D               	movlw	93
  3180  0016B2  59AE               	subwfb	(powf@j+2)& (0+255),w,b
  3181  0016B4  B0D8               	btfsc	status,0,c
  3182  0016B6  EF5F  F00B         	goto	u3741
  3183  0016BA  EF61  F00B         	goto	u3740
  3184  0016BE                     u3741:
  3185  0016BE  EF6B  F00B         	goto	l3399
  3186  0016C2                     u3740:
  3187  0016C2                     
  3188                           ; BSR set to: 1
  3189  0016C2  0E01               	movlw	1
  3190  0016C4  6FA0               	movwf	powf@k& (0+255),b
  3191  0016C6  0E00               	movlw	0
  3192  0016C8  6FA1               	movwf	(powf@k+1)& (0+255),b
  3193  0016CA  0E00               	movlw	0
  3194  0016CC  6FA2               	movwf	(powf@k+2)& (0+255),b
  3195  0016CE  0E00               	movlw	0
  3196  0016D0  6FA3               	movwf	(powf@k+3)& (0+255),b
  3197  0016D2  EF81  F00B         	goto	l3405
  3198  0016D6                     l3399:
  3199                           
  3200                           ; BSR set to: 1
  3201  0016D6  0E00               	movlw	0
  3202  0016D8  6FA0               	movwf	powf@k& (0+255),b
  3203  0016DA  0E00               	movlw	0
  3204  0016DC  6FA1               	movwf	(powf@k+1)& (0+255),b
  3205  0016DE  0E00               	movlw	0
  3206  0016E0  6FA2               	movwf	(powf@k+2)& (0+255),b
  3207  0016E2  0E00               	movlw	0
  3208  0016E4  6FA3               	movwf	(powf@k+3)& (0+255),b
  3209  0016E6                     
  3210                           ; BSR set to: 1
  3211  0016E6  0E01               	movlw	1
  3212  0016E8  277C               	addwf	powf@n& (0+255),f,b
  3213  0016EA  0E00               	movlw	0
  3214  0016EC  237D               	addwfc	(powf@n+1)& (0+255),f,b
  3215  0016EE  237E               	addwfc	(powf@n+2)& (0+255),f,b
  3216  0016F0  237F               	addwfc	(powf@n+3)& (0+255),f,b
  3217  0016F2                     
  3218                           ; BSR set to: 1
  3219  0016F2  0E00               	movlw	0
  3220  0016F4  27A8               	addwf	powf@ix& (0+255),f,b
  3221  0016F6  0E00               	movlw	0
  3222  0016F8  23A9               	addwfc	(powf@ix+1)& (0+255),f,b
  3223  0016FA  0E80               	movlw	128
  3224  0016FC  23AA               	addwfc	(powf@ix+2)& (0+255),f,b
  3225  0016FE  0EFF               	movlw	255
  3226  001700  23AB               	addwfc	(powf@ix+3)& (0+255),f,b
  3227  001702                     l3405:
  3228                           
  3229                           ; BSR set to: 1
  3230  001702  C1A8  F1B8         	movff	powf@ix,powf@__xc8_float_word
  3231  001706  C1A9  F1B9         	movff	powf@ix+1,powf@__xc8_float_word+1
  3232  00170A  C1AA  F1BA         	movff	powf@ix+2,powf@__xc8_float_word+2
  3233  00170E  C1AB  F1BB         	movff	powf@ix+3,powf@__xc8_float_word+3
  3234  001712                     
  3235                           ; BSR set to: 1
  3236  001712  C1B8  F170         	movff	powf@__xc8_float_word,powf@ax
  3237  001716  C1B9  F171         	movff	powf@__xc8_float_word+1,powf@ax+1
  3238  00171A  C1BA  F172         	movff	powf@__xc8_float_word+2,powf@ax+2
  3239  00171E  C1BB  F173         	movff	powf@__xc8_float_word+3,powf@ax+3
  3240  001722                     
  3241                           ; BSR set to: 1
  3242  001722  C170  F02A         	movff	powf@ax,___flsub@b
  3243  001726  C171  F02B         	movff	powf@ax+1,___flsub@b+1
  3244  00172A  C172  F02C         	movff	powf@ax+2,___flsub@b+2
  3245  00172E  C173  F02D         	movff	powf@ax+3,___flsub@b+3
  3246  001732  C1A0  F04B         	movff	powf@k,??_powf
  3247  001736  C1A1  F04C         	movff	powf@k+1,??_powf+1
  3248  00173A  90D8               	bcf	status,0,c
  3249  00173C  364B               	rlcf	??_powf^0,f,c
  3250  00173E  364C               	rlcf	(??_powf+1)^0,f,c
  3251  001740  90D8               	bcf	status,0,c
  3252  001742  364B               	rlcf	??_powf^0,f,c
  3253  001744  364C               	rlcf	(??_powf+1)^0,f,c
  3254  001746  0E69               	movlw	low _bp
  3255  001748  244B               	addwf	??_powf^0,w,c
  3256  00174A  6EF6               	movwf	tblptrl,c
  3257  00174C  0E08               	movlw	high _bp
  3258  00174E  204C               	addwfc	(??_powf+1)^0,w,c
  3259  001750  6EF7               	movwf	tblptrh,c
  3260  001752                     	if	0	;There are less than 3 active tblptr bytes
  3261  001752                     	endif
  3262  001752  0009               	tblrd		*+
  3263  001754  CFF5 F02E          	movff	tablat,___flsub@a
  3264  001758  0009               	tblrd		*+
  3265  00175A  CFF5 F02F          	movff	tablat,___flsub@a+1
  3266  00175E  0009               	tblrd		*+
  3267  001760  CFF5 F030          	movff	tablat,___flsub@a+2
  3268  001764  000A               	tblrd		*-
  3269  001766  CFF5 F031          	movff	tablat,___flsub@a+3
  3270  00176A  ECE8  F028         	call	___flsub	;wreg free
  3271  00176E  C02A  F174         	movff	?___flsub,powf@u
  3272  001772  C02B  F175         	movff	?___flsub+1,powf@u+1
  3273  001776  C02C  F176         	movff	?___flsub+2,powf@u+2
  3274  00177A  C02D  F177         	movff	?___flsub+3,powf@u+3
  3275  00177E  0E00               	movlw	0
  3276  001780  6E32               	movwf	___fldiv@b^0,c
  3277  001782  0E00               	movlw	0
  3278  001784  6E33               	movwf	(___fldiv@b+1)^0,c
  3279  001786  0E80               	movlw	128
  3280  001788  6E34               	movwf	(___fldiv@b+2)^0,c
  3281  00178A  0E3F               	movlw	63
  3282  00178C  6E35               	movwf	(___fldiv@b+3)^0,c
  3283  00178E  C170  F005         	movff	powf@ax,___fladd@a
  3284  001792  C171  F006         	movff	powf@ax+1,___fladd@a+1
  3285  001796  C172  F007         	movff	powf@ax+2,___fladd@a+2
  3286  00179A  C173  F008         	movff	powf@ax+3,___fladd@a+3
  3287  00179E  C1A0  F04B         	movff	powf@k,??_powf
  3288  0017A2  C1A1  F04C         	movff	powf@k+1,??_powf+1
  3289  0017A6  90D8               	bcf	status,0,c
  3290  0017A8  364B               	rlcf	??_powf^0,f,c
  3291  0017AA  364C               	rlcf	(??_powf+1)^0,f,c
  3292  0017AC  90D8               	bcf	status,0,c
  3293  0017AE  364B               	rlcf	??_powf^0,f,c
  3294  0017B0  364C               	rlcf	(??_powf+1)^0,f,c
  3295  0017B2  0E69               	movlw	low _bp
  3296  0017B4  244B               	addwf	??_powf^0,w,c
  3297  0017B6  6EF6               	movwf	tblptrl,c
  3298  0017B8  0E08               	movlw	high _bp
  3299  0017BA  204C               	addwfc	(??_powf+1)^0,w,c
  3300  0017BC  6EF7               	movwf	tblptrh,c
  3301  0017BE                     	if	0	;There are less than 3 active tblptr bytes
  3302  0017BE                     	endif
  3303  0017BE  0009               	tblrd		*+
  3304  0017C0  CFF5 F001          	movff	tablat,___fladd@b
  3305  0017C4  0009               	tblrd		*+
  3306  0017C6  CFF5 F002          	movff	tablat,___fladd@b+1
  3307  0017CA  0009               	tblrd		*+
  3308  0017CC  CFF5 F003          	movff	tablat,___fladd@b+2
  3309  0017D0  000A               	tblrd		*-
  3310  0017D2  CFF5 F004          	movff	tablat,___fladd@b+3
  3311  0017D6  EC1C  F01B         	call	___fladd	;wreg free
  3312  0017DA  C001  F036         	movff	?___fladd,___fldiv@a
  3313  0017DE  C002  F037         	movff	?___fladd+1,___fldiv@a+1
  3314  0017E2  C003  F038         	movff	?___fladd+2,___fldiv@a+2
  3315  0017E6  C004  F039         	movff	?___fladd+3,___fldiv@a+3
  3316  0017EA  ECCF  F021         	call	___fldiv	;wreg free
  3317  0017EE  C032  F178         	movff	?___fldiv,powf@v
  3318  0017F2  C033  F179         	movff	?___fldiv+1,powf@v+1
  3319  0017F6  C034  F17A         	movff	?___fldiv+2,powf@v+2
  3320  0017FA  C035  F17B         	movff	?___fldiv+3,powf@v+3
  3321  0017FE  C174  F011         	movff	powf@u,___flmul@b
  3322  001802  C175  F012         	movff	powf@u+1,___flmul@b+1
  3323  001806  C176  F013         	movff	powf@u+2,___flmul@b+2
  3324  00180A  C177  F014         	movff	powf@u+3,___flmul@b+3
  3325  00180E  C178  F015         	movff	powf@v,___flmul@a
  3326  001812  C179  F016         	movff	powf@v+1,___flmul@a+1
  3327  001816  C17A  F017         	movff	powf@v+2,___flmul@a+2
  3328  00181A  C17B  F018         	movff	powf@v+3,___flmul@a+3
  3329  00181E  ECBA  F01F         	call	___flmul	;wreg free
  3330  001822  C011  F15C         	movff	?___flmul,powf@s
  3331  001826  C012  F15D         	movff	?___flmul+1,powf@s+1
  3332  00182A  C013  F15E         	movff	?___flmul+2,powf@s+2
  3333  00182E  C014  F15F         	movff	?___flmul+3,powf@s+3
  3334  001832  C15C  F16C         	movff	powf@s,powf@s_h
  3335  001836  C15D  F16D         	movff	powf@s+1,powf@s_h+1
  3336  00183A  C15E  F16E         	movff	powf@s+2,powf@s_h+2
  3337  00183E  C15F  F16F         	movff	powf@s+3,powf@s_h+3
  3338  001842  C16C  F1B8         	movff	powf@s_h,powf@__xc8_float_word
  3339  001846  C16D  F1B9         	movff	powf@s_h+1,powf@__xc8_float_word+1
  3340  00184A  C16E  F1BA         	movff	powf@s_h+2,powf@__xc8_float_word+2
  3341  00184E  C16F  F1BB         	movff	powf@s_h+3,powf@__xc8_float_word+3
  3342  001852  C1B8  F190         	movff	powf@__xc8_float_word,powf@is
  3343  001856  C1B9  F191         	movff	powf@__xc8_float_word+1,powf@is+1
  3344  00185A  C1BA  F192         	movff	powf@__xc8_float_word+2,powf@is+2
  3345  00185E  C1BB  F193         	movff	powf@__xc8_float_word+3,powf@is+3
  3346  001862  0E00               	movlw	0
  3347  001864  0101               	movlb	1	; () banked
  3348  001866  1590               	andwf	powf@is& (0+255),w,b
  3349  001868  6FB8               	movwf	powf@__xc8_float_word& (0+255),b
  3350  00186A  0EF0               	movlw	240
  3351  00186C  1591               	andwf	(powf@is+1)& (0+255),w,b
  3352  00186E  6FB9               	movwf	(powf@__xc8_float_word+1)& (0+255),b
  3353  001870  0EFF               	movlw	255
  3354  001872  1592               	andwf	(powf@is+2)& (0+255),w,b
  3355  001874  6FBA               	movwf	(powf@__xc8_float_word+2)& (0+255),b
  3356  001876  0EFF               	movlw	255
  3357  001878  1593               	andwf	(powf@is+3)& (0+255),w,b
  3358  00187A  6FBB               	movwf	(powf@__xc8_float_word+3)& (0+255),b
  3359  00187C                     
  3360                           ; BSR set to: 1
  3361  00187C  C1B8  F16C         	movff	powf@__xc8_float_word,powf@s_h
  3362  001880  C1B9  F16D         	movff	powf@__xc8_float_word+1,powf@s_h+1
  3363  001884  C1BA  F16E         	movff	powf@__xc8_float_word+2,powf@s_h+2
  3364  001888  C1BB  F16F         	movff	powf@__xc8_float_word+3,powf@s_h+3
  3365  00188C                     
  3366                           ; BSR set to: 1
  3367  00188C  C1A8  F04B         	movff	powf@ix,??_powf
  3368  001890  C1A9  F04C         	movff	powf@ix+1,??_powf+1
  3369  001894  C1AA  F04D         	movff	powf@ix+2,??_powf+2
  3370  001898  C1AB  F04E         	movff	powf@ix+3,??_powf+3
  3371  00189C  344E               	rlcf	(??_powf+3)^0,w,c
  3372  00189E  324E               	rrcf	(??_powf+3)^0,f,c
  3373  0018A0  324D               	rrcf	(??_powf+2)^0,f,c
  3374  0018A2  324C               	rrcf	(??_powf+1)^0,f,c
  3375  0018A4  324B               	rrcf	??_powf^0,f,c
  3376  0018A6  0E00               	movlw	0
  3377  0018A8  144B               	andwf	??_powf^0,w,c
  3378  0018AA  6E4F               	movwf	(??_powf+4)^0,c
  3379  0018AC  0EF0               	movlw	240
  3380  0018AE  144C               	andwf	(??_powf+1)^0,w,c
  3381  0018B0  6E50               	movwf	(??_powf+5)^0,c
  3382  0018B2  0EFF               	movlw	255
  3383  0018B4  144D               	andwf	(??_powf+2)^0,w,c
  3384  0018B6  6E51               	movwf	(??_powf+6)^0,c
  3385  0018B8  0EFF               	movlw	255
  3386  0018BA  144E               	andwf	(??_powf+3)^0,w,c
  3387  0018BC  6E52               	movwf	(??_powf+7)^0,c
  3388  0018BE  0E00               	movlw	0
  3389  0018C0  104F               	iorwf	(??_powf+4)^0,w,c
  3390  0018C2  6F90               	movwf	powf@is& (0+255),b
  3391  0018C4  0E00               	movlw	0
  3392  0018C6  1050               	iorwf	(??_powf+5)^0,w,c
  3393  0018C8  6F91               	movwf	(powf@is+1)& (0+255),b
  3394  0018CA  0E00               	movlw	0
  3395  0018CC  1051               	iorwf	(??_powf+6)^0,w,c
  3396  0018CE  6F92               	movwf	(powf@is+2)& (0+255),b
  3397  0018D0  0E20               	movlw	32
  3398  0018D2  1052               	iorwf	(??_powf+7)^0,w,c
  3399  0018D4  6F93               	movwf	(powf@is+3)& (0+255),b
  3400  0018D6                     
  3401                           ; BSR set to: 1
  3402  0018D6  C1A0  F04B         	movff	powf@k,??_powf
  3403  0018DA  C1A1  F04C         	movff	powf@k+1,??_powf+1
  3404  0018DE  C1A2  F04D         	movff	powf@k+2,??_powf+2
  3405  0018E2  C1A3  F04E         	movff	powf@k+3,??_powf+3
  3406  0018E6  0E15               	movlw	21
  3407  0018E8                     u3755:
  3408  0018E8  90D8               	bcf	status,0,c
  3409  0018EA  364B               	rlcf	??_powf^0,f,c
  3410  0018EC  364C               	rlcf	(??_powf+1)^0,f,c
  3411  0018EE  364D               	rlcf	(??_powf+2)^0,f,c
  3412  0018F0  364E               	rlcf	(??_powf+3)^0,f,c
  3413  0018F2  2EE8               	decfsz	wreg,f,c
  3414  0018F4  EF74  F00C         	goto	u3755
  3415  0018F8  5190               	movf	powf@is& (0+255),w,b
  3416  0018FA  244B               	addwf	??_powf^0,w,c
  3417  0018FC  6E4F               	movwf	(??_powf+4)^0,c
  3418  0018FE  5191               	movf	(powf@is+1)& (0+255),w,b
  3419  001900  204C               	addwfc	(??_powf+1)^0,w,c
  3420  001902  6E50               	movwf	(??_powf+5)^0,c
  3421  001904  5192               	movf	(powf@is+2)& (0+255),w,b
  3422  001906  204D               	addwfc	(??_powf+2)^0,w,c
  3423  001908  6E51               	movwf	(??_powf+6)^0,c
  3424  00190A  5193               	movf	(powf@is+3)& (0+255),w,b
  3425  00190C  204E               	addwfc	(??_powf+3)^0,w,c
  3426  00190E  6E52               	movwf	(??_powf+7)^0,c
  3427  001910  0E00               	movlw	0
  3428  001912  244F               	addwf	(??_powf+4)^0,w,c
  3429  001914  6FB8               	movwf	powf@__xc8_float_word& (0+255),b
  3430  001916  0E00               	movlw	0
  3431  001918  2050               	addwfc	(??_powf+5)^0,w,c
  3432  00191A  6FB9               	movwf	(powf@__xc8_float_word+1)& (0+255),b
  3433  00191C  0E40               	movlw	64
  3434  00191E  2051               	addwfc	(??_powf+6)^0,w,c
  3435  001920  6FBA               	movwf	(powf@__xc8_float_word+2)& (0+255),b
  3436  001922  0E00               	movlw	0
  3437  001924  2052               	addwfc	(??_powf+7)^0,w,c
  3438  001926  6FBB               	movwf	(powf@__xc8_float_word+3)& (0+255),b
  3439  001928                     
  3440                           ; BSR set to: 1
  3441  001928  C1B8  F168         	movff	powf@__xc8_float_word,powf@t_h
  3442  00192C  C1B9  F169         	movff	powf@__xc8_float_word+1,powf@t_h+1
  3443  001930  C1BA  F16A         	movff	powf@__xc8_float_word+2,powf@t_h+2
  3444  001934  C1BB  F16B         	movff	powf@__xc8_float_word+3,powf@t_h+3
  3445  001938                     
  3446                           ; BSR set to: 1
  3447  001938  C1A0  F04B         	movff	powf@k,??_powf
  3448  00193C  C1A1  F04C         	movff	powf@k+1,??_powf+1
  3449  001940  90D8               	bcf	status,0,c
  3450  001942  364B               	rlcf	??_powf^0,f,c
  3451  001944  364C               	rlcf	(??_powf+1)^0,f,c
  3452  001946  90D8               	bcf	status,0,c
  3453  001948  364B               	rlcf	??_powf^0,f,c
  3454  00194A  364C               	rlcf	(??_powf+1)^0,f,c
  3455  00194C  0E69               	movlw	low _bp
  3456  00194E  244B               	addwf	??_powf^0,w,c
  3457  001950  6EF6               	movwf	tblptrl,c
  3458  001952  0E08               	movlw	high _bp
  3459  001954  204C               	addwfc	(??_powf+1)^0,w,c
  3460  001956  6EF7               	movwf	tblptrh,c
  3461  001958                     	if	0	;There are less than 3 active tblptr bytes
  3462  001958                     	endif
  3463  001958  0009               	tblrd		*+
  3464  00195A  CFF5 F02E          	movff	tablat,___flsub@a
  3465  00195E  0009               	tblrd		*+
  3466  001960  CFF5 F02F          	movff	tablat,___flsub@a+1
  3467  001964  0009               	tblrd		*+
  3468  001966  CFF5 F030          	movff	tablat,___flsub@a+2
  3469  00196A  000A               	tblrd		*-
  3470  00196C  CFF5 F031          	movff	tablat,___flsub@a+3
  3471  001970  C168  F02A         	movff	powf@t_h,___flsub@b
  3472  001974  C169  F02B         	movff	powf@t_h+1,___flsub@b+1
  3473  001978  C16A  F02C         	movff	powf@t_h+2,___flsub@b+2
  3474  00197C  C16B  F02D         	movff	powf@t_h+3,___flsub@b+3
  3475  001980  ECE8  F028         	call	___flsub	;wreg free
  3476  001984  C02A  F194         	movff	?___flsub,_powf$962
  3477  001988  C02B  F195         	movff	?___flsub+1,_powf$962+1
  3478  00198C  C02C  F196         	movff	?___flsub+2,_powf$962+2
  3479  001990  C02D  F197         	movff	?___flsub+3,_powf$962+3
  3480  001994  C170  F02A         	movff	powf@ax,___flsub@b
  3481  001998  C171  F02B         	movff	powf@ax+1,___flsub@b+1
  3482  00199C  C172  F02C         	movff	powf@ax+2,___flsub@b+2
  3483  0019A0  C173  F02D         	movff	powf@ax+3,___flsub@b+3
  3484  0019A4  C194  F02E         	movff	_powf$962,___flsub@a
  3485  0019A8  C195  F02F         	movff	_powf$962+1,___flsub@a+1
  3486  0019AC  C196  F030         	movff	_powf$962+2,___flsub@a+2
  3487  0019B0  C197  F031         	movff	_powf$962+3,___flsub@a+3
  3488  0019B4  ECE8  F028         	call	___flsub	;wreg free
  3489  0019B8  C02A  F134         	movff	?___flsub,powf@t_l
  3490  0019BC  C02B  F135         	movff	?___flsub+1,powf@t_l+1
  3491  0019C0  C02C  F136         	movff	?___flsub+2,powf@t_l+2
  3492  0019C4  C02D  F137         	movff	?___flsub+3,powf@t_l+3
  3493  0019C8  C168  F015         	movff	powf@t_h,___flmul@a
  3494  0019CC  C169  F016         	movff	powf@t_h+1,___flmul@a+1
  3495  0019D0  C16A  F017         	movff	powf@t_h+2,___flmul@a+2
  3496  0019D4  C16B  F018         	movff	powf@t_h+3,___flmul@a+3
  3497  0019D8  C16C  F011         	movff	powf@s_h,___flmul@b
  3498  0019DC  C16D  F012         	movff	powf@s_h+1,___flmul@b+1
  3499  0019E0  C16E  F013         	movff	powf@s_h+2,___flmul@b+2
  3500  0019E4  C16F  F014         	movff	powf@s_h+3,___flmul@b+3
  3501  0019E8  ECBA  F01F         	call	___flmul	;wreg free
  3502  0019EC  C011  F02E         	movff	?___flmul,___flsub@a
  3503  0019F0  C012  F02F         	movff	?___flmul+1,___flsub@a+1
  3504  0019F4  C013  F030         	movff	?___flmul+2,___flsub@a+2
  3505  0019F8  C014  F031         	movff	?___flmul+3,___flsub@a+3
  3506  0019FC  C174  F02A         	movff	powf@u,___flsub@b
  3507  001A00  C175  F02B         	movff	powf@u+1,___flsub@b+1
  3508  001A04  C176  F02C         	movff	powf@u+2,___flsub@b+2
  3509  001A08  C177  F02D         	movff	powf@u+3,___flsub@b+3
  3510  001A0C  ECE8  F028         	call	___flsub	;wreg free
  3511  001A10  C02A  F194         	movff	?___flsub,_powf$962
  3512  001A14  C02B  F195         	movff	?___flsub+1,_powf$962+1
  3513  001A18  C02C  F196         	movff	?___flsub+2,_powf$962+2
  3514  001A1C  C02D  F197         	movff	?___flsub+3,_powf$962+3
  3515  001A20  C134  F015         	movff	powf@t_l,___flmul@a
  3516  001A24  C135  F016         	movff	powf@t_l+1,___flmul@a+1
  3517  001A28  C136  F017         	movff	powf@t_l+2,___flmul@a+2
  3518  001A2C  C137  F018         	movff	powf@t_l+3,___flmul@a+3
  3519  001A30  C16C  F011         	movff	powf@s_h,___flmul@b
  3520  001A34  C16D  F012         	movff	powf@s_h+1,___flmul@b+1
  3521  001A38  C16E  F013         	movff	powf@s_h+2,___flmul@b+2
  3522  001A3C  C16F  F014         	movff	powf@s_h+3,___flmul@b+3
  3523  001A40  ECBA  F01F         	call	___flmul	;wreg free
  3524  001A44  C011  F02E         	movff	?___flmul,___flsub@a
  3525  001A48  C012  F02F         	movff	?___flmul+1,___flsub@a+1
  3526  001A4C  C013  F030         	movff	?___flmul+2,___flsub@a+2
  3527  001A50  C014  F031         	movff	?___flmul+3,___flsub@a+3
  3528  001A54  C194  F02A         	movff	_powf$962,___flsub@b
  3529  001A58  C195  F02B         	movff	_powf$962+1,___flsub@b+1
  3530  001A5C  C196  F02C         	movff	_powf$962+2,___flsub@b+2
  3531  001A60  C197  F02D         	movff	_powf$962+3,___flsub@b+3
  3532  001A64  ECE8  F028         	call	___flsub	;wreg free
  3533  001A68  C02A  F154         	movff	?___flsub,_powf$960
  3534  001A6C  C02B  F155         	movff	?___flsub+1,_powf$960+1
  3535  001A70  C02C  F156         	movff	?___flsub+2,_powf$960+2
  3536  001A74  C02D  F157         	movff	?___flsub+3,_powf$960+3
  3537  001A78  C154  F011         	movff	_powf$960,___flmul@b
  3538  001A7C  C155  F012         	movff	_powf$960+1,___flmul@b+1
  3539  001A80  C156  F013         	movff	_powf$960+2,___flmul@b+2
  3540  001A84  C157  F014         	movff	_powf$960+3,___flmul@b+3
  3541  001A88  C178  F015         	movff	powf@v,___flmul@a
  3542  001A8C  C179  F016         	movff	powf@v+1,___flmul@a+1
  3543  001A90  C17A  F017         	movff	powf@v+2,___flmul@a+2
  3544  001A94  C17B  F018         	movff	powf@v+3,___flmul@a+3
  3545  001A98  ECBA  F01F         	call	___flmul	;wreg free
  3546  001A9C  C011  F130         	movff	?___flmul,powf@s_l
  3547  001AA0  C012  F131         	movff	?___flmul+1,powf@s_l+1
  3548  001AA4  C013  F132         	movff	?___flmul+2,powf@s_l+2
  3549  001AA8  C014  F133         	movff	?___flmul+3,powf@s_l+3
  3550  001AAC  C15C  F011         	movff	powf@s,___flmul@b
  3551  001AB0  C15D  F012         	movff	powf@s+1,___flmul@b+1
  3552  001AB4  C15E  F013         	movff	powf@s+2,___flmul@b+2
  3553  001AB8  C15F  F014         	movff	powf@s+3,___flmul@b+3
  3554  001ABC  C15C  F015         	movff	powf@s,___flmul@a
  3555  001AC0  C15D  F016         	movff	powf@s+1,___flmul@a+1
  3556  001AC4  C15E  F017         	movff	powf@s+2,___flmul@a+2
  3557  001AC8  C15F  F018         	movff	powf@s+3,___flmul@a+3
  3558  001ACC  ECBA  F01F         	call	___flmul	;wreg free
  3559  001AD0  C011  F18C         	movff	?___flmul,powf@s2
  3560  001AD4  C012  F18D         	movff	?___flmul+1,powf@s2+1
  3561  001AD8  C013  F18E         	movff	?___flmul+2,powf@s2+2
  3562  001ADC  C014  F18F         	movff	?___flmul+3,powf@s2+3
  3563  001AE0  0E55               	movlw	85
  3564  001AE2  6E05               	movwf	___fladd@a^0,c
  3565  001AE4  0E32               	movlw	50
  3566  001AE6  6E06               	movwf	(___fladd@a+1)^0,c
  3567  001AE8  0E6C               	movlw	108
  3568  001AEA  6E07               	movwf	(___fladd@a+2)^0,c
  3569  001AEC  0E3E               	movlw	62
  3570  001AEE  6E08               	movwf	(___fladd@a+3)^0,c
  3571  001AF0  0E42               	movlw	66
  3572  001AF2  6E15               	movwf	___flmul@a^0,c
  3573  001AF4  0EF1               	movlw	241
  3574  001AF6  6E16               	movwf	(___flmul@a+1)^0,c
  3575  001AF8  0E53               	movlw	83
  3576  001AFA  6E17               	movwf	(___flmul@a+2)^0,c
  3577  001AFC  0E3E               	movlw	62
  3578  001AFE  6E18               	movwf	(___flmul@a+3)^0,c
  3579  001B00  C18C  F011         	movff	powf@s2,___flmul@b
  3580  001B04  C18D  F012         	movff	powf@s2+1,___flmul@b+1
  3581  001B08  C18E  F013         	movff	powf@s2+2,___flmul@b+2
  3582  001B0C  C18F  F014         	movff	powf@s2+3,___flmul@b+3
  3583  001B10  ECBA  F01F         	call	___flmul	;wreg free
  3584  001B14  C011  F001         	movff	?___flmul,___fladd@b
  3585  001B18  C012  F002         	movff	?___flmul+1,___fladd@b+1
  3586  001B1C  C013  F003         	movff	?___flmul+2,___fladd@b+2
  3587  001B20  C014  F004         	movff	?___flmul+3,___fladd@b+3
  3588  001B24  EC1C  F01B         	call	___fladd	;wreg free
  3589  001B28  C001  F1A4         	movff	?___fladd,_powf$959
  3590  001B2C  C002  F1A5         	movff	?___fladd+1,_powf$959+1
  3591  001B30  C003  F1A6         	movff	?___fladd+2,_powf$959+2
  3592  001B34  C004  F1A7         	movff	?___fladd+3,_powf$959+3
  3593  001B38  0E05               	movlw	5
  3594  001B3A  6E05               	movwf	___fladd@a^0,c
  3595  001B3C  0EA3               	movlw	163
  3596  001B3E  6E06               	movwf	(___fladd@a+1)^0,c
  3597  001B40  0E8B               	movlw	139
  3598  001B42  6E07               	movwf	(___fladd@a+2)^0,c
  3599  001B44  0E3E               	movlw	62
  3600  001B46  6E08               	movwf	(___fladd@a+3)^0,c
  3601  001B48  C18C  F015         	movff	powf@s2,___flmul@a
  3602  001B4C  C18D  F016         	movff	powf@s2+1,___flmul@a+1
  3603  001B50  C18E  F017         	movff	powf@s2+2,___flmul@a+2
  3604  001B54  C18F  F018         	movff	powf@s2+3,___flmul@a+3
  3605  001B58  C1A4  F011         	movff	_powf$959,___flmul@b
  3606  001B5C  C1A5  F012         	movff	_powf$959+1,___flmul@b+1
  3607  001B60  C1A6  F013         	movff	_powf$959+2,___flmul@b+2
  3608  001B64  C1A7  F014         	movff	_powf$959+3,___flmul@b+3
  3609  001B68  ECBA  F01F         	call	___flmul	;wreg free
  3610  001B6C  C011  F001         	movff	?___flmul,___fladd@b
  3611  001B70  C012  F002         	movff	?___flmul+1,___fladd@b+1
  3612  001B74  C013  F003         	movff	?___flmul+2,___fladd@b+2
  3613  001B78  C014  F004         	movff	?___flmul+3,___fladd@b+3
  3614  001B7C  EC1C  F01B         	call	___fladd	;wreg free
  3615  001B80  C001  F154         	movff	?___fladd,_powf$960
  3616  001B84  C002  F155         	movff	?___fladd+1,_powf$960+1
  3617  001B88  C003  F156         	movff	?___fladd+2,_powf$960+2
  3618  001B8C  C004  F157         	movff	?___fladd+3,_powf$960+3
  3619  001B90  0EAB               	movlw	171
  3620  001B92  6E05               	movwf	___fladd@a^0,c
  3621  001B94  0EAA               	movlw	170
  3622  001B96  6E06               	movwf	(___fladd@a+1)^0,c
  3623  001B98  0EAA               	movlw	170
  3624  001B9A  6E07               	movwf	(___fladd@a+2)^0,c
  3625  001B9C  0E3E               	movlw	62
  3626  001B9E  6E08               	movwf	(___fladd@a+3)^0,c
  3627  001BA0  C18C  F015         	movff	powf@s2,___flmul@a
  3628  001BA4  C18D  F016         	movff	powf@s2+1,___flmul@a+1
  3629  001BA8  C18E  F017         	movff	powf@s2+2,___flmul@a+2
  3630  001BAC  C18F  F018         	movff	powf@s2+3,___flmul@a+3
  3631  001BB0  C154  F011         	movff	_powf$960,___flmul@b
  3632  001BB4  C155  F012         	movff	_powf$960+1,___flmul@b+1
  3633  001BB8  C156  F013         	movff	_powf$960+2,___flmul@b+2
  3634  001BBC  C157  F014         	movff	_powf$960+3,___flmul@b+3
  3635  001BC0  ECBA  F01F         	call	___flmul	;wreg free
  3636  001BC4  C011  F001         	movff	?___flmul,___fladd@b
  3637  001BC8  C012  F002         	movff	?___flmul+1,___fladd@b+1
  3638  001BCC  C013  F003         	movff	?___flmul+2,___fladd@b+2
  3639  001BD0  C014  F004         	movff	?___flmul+3,___fladd@b+3
  3640  001BD4  EC1C  F01B         	call	___fladd	;wreg free
  3641  001BD8  C001  F148         	movff	?___fladd,_powf$961
  3642  001BDC  C002  F149         	movff	?___fladd+1,_powf$961+1
  3643  001BE0  C003  F14A         	movff	?___fladd+2,_powf$961+2
  3644  001BE4  C004  F14B         	movff	?___fladd+3,_powf$961+3
  3645  001BE8  0EB7               	movlw	183
  3646  001BEA  6E05               	movwf	___fladd@a^0,c
  3647  001BEC  0E6D               	movlw	109
  3648  001BEE  6E06               	movwf	(___fladd@a+1)^0,c
  3649  001BF0  0EDB               	movlw	219
  3650  001BF2  6E07               	movwf	(___fladd@a+2)^0,c
  3651  001BF4  0E3E               	movlw	62
  3652  001BF6  6E08               	movwf	(___fladd@a+3)^0,c
  3653  001BF8  C18C  F015         	movff	powf@s2,___flmul@a
  3654  001BFC  C18D  F016         	movff	powf@s2+1,___flmul@a+1
  3655  001C00  C18E  F017         	movff	powf@s2+2,___flmul@a+2
  3656  001C04  C18F  F018         	movff	powf@s2+3,___flmul@a+3
  3657  001C08  C148  F011         	movff	_powf$961,___flmul@b
  3658  001C0C  C149  F012         	movff	_powf$961+1,___flmul@b+1
  3659  001C10  C14A  F013         	movff	_powf$961+2,___flmul@b+2
  3660  001C14  C14B  F014         	movff	_powf$961+3,___flmul@b+3
  3661  001C18  ECBA  F01F         	call	___flmul	;wreg free
  3662  001C1C  C011  F001         	movff	?___flmul,___fladd@b
  3663  001C20  C012  F002         	movff	?___flmul+1,___fladd@b+1
  3664  001C24  C013  F003         	movff	?___flmul+2,___fladd@b+2
  3665  001C28  C014  F004         	movff	?___flmul+3,___fladd@b+3
  3666  001C2C  EC1C  F01B         	call	___fladd	;wreg free
  3667  001C30  C001  F138         	movff	?___fladd,_powf$963
  3668  001C34  C002  F139         	movff	?___fladd+1,_powf$963+1
  3669  001C38  C003  F13A         	movff	?___fladd+2,_powf$963+2
  3670  001C3C  C004  F13B         	movff	?___fladd+3,_powf$963+3
  3671  001C40  0E9A               	movlw	154
  3672  001C42  6E05               	movwf	___fladd@a^0,c
  3673  001C44  0E99               	movlw	153
  3674  001C46  6E06               	movwf	(___fladd@a+1)^0,c
  3675  001C48  0E19               	movlw	25
  3676  001C4A  6E07               	movwf	(___fladd@a+2)^0,c
  3677  001C4C  0E3F               	movlw	63
  3678  001C4E  6E08               	movwf	(___fladd@a+3)^0,c
  3679  001C50  C18C  F015         	movff	powf@s2,___flmul@a
  3680  001C54  C18D  F016         	movff	powf@s2+1,___flmul@a+1
  3681  001C58  C18E  F017         	movff	powf@s2+2,___flmul@a+2
  3682  001C5C  C18F  F018         	movff	powf@s2+3,___flmul@a+3
  3683  001C60  C138  F011         	movff	_powf$963,___flmul@b
  3684  001C64  C139  F012         	movff	_powf$963+1,___flmul@b+1
  3685  001C68  C13A  F013         	movff	_powf$963+2,___flmul@b+2
  3686  001C6C  C13B  F014         	movff	_powf$963+3,___flmul@b+3
  3687  001C70  ECBA  F01F         	call	___flmul	;wreg free
  3688  001C74  C011  F001         	movff	?___flmul,___fladd@b
  3689  001C78  C012  F002         	movff	?___flmul+1,___fladd@b+1
  3690  001C7C  C013  F003         	movff	?___flmul+2,___fladd@b+2
  3691  001C80  C014  F004         	movff	?___flmul+3,___fladd@b+3
  3692  001C84  EC1C  F01B         	call	___fladd	;wreg free
  3693  001C88  C001  F100         	movff	?___fladd,_powf$964
  3694  001C8C  C002  F101         	movff	?___fladd+1,_powf$964+1
  3695  001C90  C003  F102         	movff	?___fladd+2,_powf$964+2
  3696  001C94  C004  F103         	movff	?___fladd+3,_powf$964+3
  3697  001C98  C18C  F015         	movff	powf@s2,___flmul@a
  3698  001C9C  C18D  F016         	movff	powf@s2+1,___flmul@a+1
  3699  001CA0  C18E  F017         	movff	powf@s2+2,___flmul@a+2
  3700  001CA4  C18F  F018         	movff	powf@s2+3,___flmul@a+3
  3701  001CA8  C18C  F011         	movff	powf@s2,___flmul@b
  3702  001CAC  C18D  F012         	movff	powf@s2+1,___flmul@b+1
  3703  001CB0  C18E  F013         	movff	powf@s2+2,___flmul@b+2
  3704  001CB4  C18F  F014         	movff	powf@s2+3,___flmul@b+3
  3705  001CB8  ECBA  F01F         	call	___flmul	;wreg free
  3706  001CBC  C011  F104         	movff	?___flmul,_powf$965
  3707  001CC0  C012  F105         	movff	?___flmul+1,_powf$965+1
  3708  001CC4  C013  F106         	movff	?___flmul+2,_powf$965+2
  3709  001CC8  C014  F107         	movff	?___flmul+3,_powf$965+3
  3710  001CCC  C100  F011         	movff	_powf$964,___flmul@b
  3711  001CD0  C101  F012         	movff	_powf$964+1,___flmul@b+1
  3712  001CD4  C102  F013         	movff	_powf$964+2,___flmul@b+2
  3713  001CD8  C103  F014         	movff	_powf$964+3,___flmul@b+3
  3714  001CDC  C104  F015         	movff	_powf$965,___flmul@a
  3715  001CE0  C105  F016         	movff	_powf$965+1,___flmul@a+1
  3716  001CE4  C106  F017         	movff	_powf$965+2,___flmul@a+2
  3717  001CE8  C107  F018         	movff	_powf$965+3,___flmul@a+3
  3718  001CEC  ECBA  F01F         	call	___flmul	;wreg free
  3719  001CF0  C011  F14C         	movff	?___flmul,powf@r
  3720  001CF4  C012  F14D         	movff	?___flmul+1,powf@r+1
  3721  001CF8  C013  F14E         	movff	?___flmul+2,powf@r+2
  3722  001CFC  C014  F14F         	movff	?___flmul+3,powf@r+3
  3723  001D00  C130  F015         	movff	powf@s_l,___flmul@a
  3724  001D04  C131  F016         	movff	powf@s_l+1,___flmul@a+1
  3725  001D08  C132  F017         	movff	powf@s_l+2,___flmul@a+2
  3726  001D0C  C133  F018         	movff	powf@s_l+3,___flmul@a+3
  3727  001D10  C15C  F005         	movff	powf@s,___fladd@a
  3728  001D14  C15D  F006         	movff	powf@s+1,___fladd@a+1
  3729  001D18  C15E  F007         	movff	powf@s+2,___fladd@a+2
  3730  001D1C  C15F  F008         	movff	powf@s+3,___fladd@a+3
  3731  001D20  C16C  F001         	movff	powf@s_h,___fladd@b
  3732  001D24  C16D  F002         	movff	powf@s_h+1,___fladd@b+1
  3733  001D28  C16E  F003         	movff	powf@s_h+2,___fladd@b+2
  3734  001D2C  C16F  F004         	movff	powf@s_h+3,___fladd@b+3
  3735  001D30  EC1C  F01B         	call	___fladd	;wreg free
  3736  001D34  C001  F011         	movff	?___fladd,___flmul@b
  3737  001D38  C002  F012         	movff	?___fladd+1,___flmul@b+1
  3738  001D3C  C003  F013         	movff	?___fladd+2,___flmul@b+2
  3739  001D40  C004  F014         	movff	?___fladd+3,___flmul@b+3
  3740  001D44  ECBA  F01F         	call	___flmul	;wreg free
  3741  001D48  C011  F158         	movff	?___flmul,_powf$966
  3742  001D4C  C012  F159         	movff	?___flmul+1,_powf$966+1
  3743  001D50  C013  F15A         	movff	?___flmul+2,_powf$966+2
  3744  001D54  C014  F15B         	movff	?___flmul+3,_powf$966+3
  3745  001D58  C14C  F001         	movff	powf@r,___fladd@b
  3746  001D5C  C14D  F002         	movff	powf@r+1,___fladd@b+1
  3747  001D60  C14E  F003         	movff	powf@r+2,___fladd@b+2
  3748  001D64  C14F  F004         	movff	powf@r+3,___fladd@b+3
  3749  001D68  C158  F005         	movff	_powf$966,___fladd@a
  3750  001D6C  C159  F006         	movff	_powf$966+1,___fladd@a+1
  3751  001D70  C15A  F007         	movff	_powf$966+2,___fladd@a+2
  3752  001D74  C15B  F008         	movff	_powf$966+3,___fladd@a+3
  3753  001D78  EC1C  F01B         	call	___fladd	;wreg free
  3754  001D7C  C001  F14C         	movff	?___fladd,powf@r
  3755  001D80  C002  F14D         	movff	?___fladd+1,powf@r+1
  3756  001D84  C003  F14E         	movff	?___fladd+2,powf@r+2
  3757  001D88  C004  F14F         	movff	?___fladd+3,powf@r+3
  3758  001D8C  C16C  F011         	movff	powf@s_h,___flmul@b
  3759  001D90  C16D  F012         	movff	powf@s_h+1,___flmul@b+1
  3760  001D94  C16E  F013         	movff	powf@s_h+2,___flmul@b+2
  3761  001D98  C16F  F014         	movff	powf@s_h+3,___flmul@b+3
  3762  001D9C  C16C  F015         	movff	powf@s_h,___flmul@a
  3763  001DA0  C16D  F016         	movff	powf@s_h+1,___flmul@a+1
  3764  001DA4  C16E  F017         	movff	powf@s_h+2,___flmul@a+2
  3765  001DA8  C16F  F018         	movff	powf@s_h+3,___flmul@a+3
  3766  001DAC  ECBA  F01F         	call	___flmul	;wreg free
  3767  001DB0  C011  F18C         	movff	?___flmul,powf@s2
  3768  001DB4  C012  F18D         	movff	?___flmul+1,powf@s2+1
  3769  001DB8  C013  F18E         	movff	?___flmul+2,powf@s2+2
  3770  001DBC  C014  F18F         	movff	?___flmul+3,powf@s2+3
  3771  001DC0  0E00               	movlw	0
  3772  001DC2  6E05               	movwf	___fladd@a^0,c
  3773  001DC4  0E00               	movlw	0
  3774  001DC6  6E06               	movwf	(___fladd@a+1)^0,c
  3775  001DC8  0E40               	movlw	64
  3776  001DCA  6E07               	movwf	(___fladd@a+2)^0,c
  3777  001DCC  0E40               	movlw	64
  3778  001DCE  6E08               	movwf	(___fladd@a+3)^0,c
  3779  001DD0  C18C  F001         	movff	powf@s2,___fladd@b
  3780  001DD4  C18D  F002         	movff	powf@s2+1,___fladd@b+1
  3781  001DD8  C18E  F003         	movff	powf@s2+2,___fladd@b+2
  3782  001DDC  C18F  F004         	movff	powf@s2+3,___fladd@b+3
  3783  001DE0  EC1C  F01B         	call	___fladd	;wreg free
  3784  001DE4  C001  F158         	movff	?___fladd,_powf$966
  3785  001DE8  C002  F159         	movff	?___fladd+1,_powf$966+1
  3786  001DEC  C003  F15A         	movff	?___fladd+2,_powf$966+2
  3787  001DF0  C004  F15B         	movff	?___fladd+3,_powf$966+3
  3788  001DF4  C158  F001         	movff	_powf$966,___fladd@b
  3789  001DF8  C159  F002         	movff	_powf$966+1,___fladd@b+1
  3790  001DFC  C15A  F003         	movff	_powf$966+2,___fladd@b+2
  3791  001E00  C15B  F004         	movff	_powf$966+3,___fladd@b+3
  3792  001E04  C14C  F005         	movff	powf@r,___fladd@a
  3793  001E08  C14D  F006         	movff	powf@r+1,___fladd@a+1
  3794  001E0C  C14E  F007         	movff	powf@r+2,___fladd@a+2
  3795  001E10  C14F  F008         	movff	powf@r+3,___fladd@a+3
  3796  001E14  EC1C  F01B         	call	___fladd	;wreg free
  3797  001E18  C001  F168         	movff	?___fladd,powf@t_h
  3798  001E1C  C002  F169         	movff	?___fladd+1,powf@t_h+1
  3799  001E20  C003  F16A         	movff	?___fladd+2,powf@t_h+2
  3800  001E24  C004  F16B         	movff	?___fladd+3,powf@t_h+3
  3801  001E28  C168  F1B8         	movff	powf@t_h,powf@__xc8_float_word
  3802  001E2C  C169  F1B9         	movff	powf@t_h+1,powf@__xc8_float_word+1
  3803  001E30  C16A  F1BA         	movff	powf@t_h+2,powf@__xc8_float_word+2
  3804  001E34  C16B  F1BB         	movff	powf@t_h+3,powf@__xc8_float_word+3
  3805  001E38  C1B8  F190         	movff	powf@__xc8_float_word,powf@is
  3806  001E3C  C1B9  F191         	movff	powf@__xc8_float_word+1,powf@is+1
  3807  001E40  C1BA  F192         	movff	powf@__xc8_float_word+2,powf@is+2
  3808  001E44  C1BB  F193         	movff	powf@__xc8_float_word+3,powf@is+3
  3809  001E48  0E00               	movlw	0
  3810  001E4A  0101               	movlb	1	; () banked
  3811  001E4C  1590               	andwf	powf@is& (0+255),w,b
  3812  001E4E  6FB8               	movwf	powf@__xc8_float_word& (0+255),b
  3813  001E50  0EF0               	movlw	240
  3814  001E52  1591               	andwf	(powf@is+1)& (0+255),w,b
  3815  001E54  6FB9               	movwf	(powf@__xc8_float_word+1)& (0+255),b
  3816  001E56  0EFF               	movlw	255
  3817  001E58  1592               	andwf	(powf@is+2)& (0+255),w,b
  3818  001E5A  6FBA               	movwf	(powf@__xc8_float_word+2)& (0+255),b
  3819  001E5C  0EFF               	movlw	255
  3820  001E5E  1593               	andwf	(powf@is+3)& (0+255),w,b
  3821  001E60  6FBB               	movwf	(powf@__xc8_float_word+3)& (0+255),b
  3822  001E62                     
  3823                           ; BSR set to: 1
  3824  001E62  C1B8  F168         	movff	powf@__xc8_float_word,powf@t_h
  3825  001E66  C1B9  F169         	movff	powf@__xc8_float_word+1,powf@t_h+1
  3826  001E6A  C1BA  F16A         	movff	powf@__xc8_float_word+2,powf@t_h+2
  3827  001E6E  C1BB  F16B         	movff	powf@__xc8_float_word+3,powf@t_h+3
  3828  001E72                     
  3829                           ; BSR set to: 1
  3830  001E72  0E00               	movlw	0
  3831  001E74  6E05               	movwf	___fladd@a^0,c
  3832  001E76  0E00               	movlw	0
  3833  001E78  6E06               	movwf	(___fladd@a+1)^0,c
  3834  001E7A  0E40               	movlw	64
  3835  001E7C  6E07               	movwf	(___fladd@a+2)^0,c
  3836  001E7E  0EC0               	movlw	192
  3837  001E80  6E08               	movwf	(___fladd@a+3)^0,c
  3838  001E82  C168  F001         	movff	powf@t_h,___fladd@b
  3839  001E86  C169  F002         	movff	powf@t_h+1,___fladd@b+1
  3840  001E8A  C16A  F003         	movff	powf@t_h+2,___fladd@b+2
  3841  001E8E  C16B  F004         	movff	powf@t_h+3,___fladd@b+3
  3842  001E92  EC1C  F01B         	call	___fladd	;wreg free
  3843  001E96  C001  F13C         	movff	?___fladd,_powf$967
  3844  001E9A  C002  F13D         	movff	?___fladd+1,_powf$967+1
  3845  001E9E  C003  F13E         	movff	?___fladd+2,_powf$967+2
  3846  001EA2  C004  F13F         	movff	?___fladd+3,_powf$967+3
  3847  001EA6  C18C  F02E         	movff	powf@s2,___flsub@a
  3848  001EAA  C18D  F02F         	movff	powf@s2+1,___flsub@a+1
  3849  001EAE  C18E  F030         	movff	powf@s2+2,___flsub@a+2
  3850  001EB2  C18F  F031         	movff	powf@s2+3,___flsub@a+3
  3851  001EB6  C13C  F02A         	movff	_powf$967,___flsub@b
  3852  001EBA  C13D  F02B         	movff	_powf$967+1,___flsub@b+1
  3853  001EBE  C13E  F02C         	movff	_powf$967+2,___flsub@b+2
  3854  001EC2  C13F  F02D         	movff	_powf$967+3,___flsub@b+3
  3855  001EC6  ECE8  F028         	call	___flsub	;wreg free
  3856  001ECA  C02A  F140         	movff	?___flsub,_powf$968
  3857  001ECE  C02B  F141         	movff	?___flsub+1,_powf$968+1
  3858  001ED2  C02C  F142         	movff	?___flsub+2,_powf$968+2
  3859  001ED6  C02D  F143         	movff	?___flsub+3,_powf$968+3
  3860  001EDA  C14C  F02A         	movff	powf@r,___flsub@b
  3861  001EDE  C14D  F02B         	movff	powf@r+1,___flsub@b+1
  3862  001EE2  C14E  F02C         	movff	powf@r+2,___flsub@b+2
  3863  001EE6  C14F  F02D         	movff	powf@r+3,___flsub@b+3
  3864  001EEA  C140  F02E         	movff	_powf$968,___flsub@a
  3865  001EEE  C141  F02F         	movff	_powf$968+1,___flsub@a+1
  3866  001EF2  C142  F030         	movff	_powf$968+2,___flsub@a+2
  3867  001EF6  C143  F031         	movff	_powf$968+3,___flsub@a+3
  3868  001EFA  ECE8  F028         	call	___flsub	;wreg free
  3869  001EFE  C02A  F134         	movff	?___flsub,powf@t_l
  3870  001F02  C02B  F135         	movff	?___flsub+1,powf@t_l+1
  3871  001F06  C02C  F136         	movff	?___flsub+2,powf@t_l+2
  3872  001F0A  C02D  F137         	movff	?___flsub+3,powf@t_l+3
  3873  001F0E  C16C  F011         	movff	powf@s_h,___flmul@b
  3874  001F12  C16D  F012         	movff	powf@s_h+1,___flmul@b+1
  3875  001F16  C16E  F013         	movff	powf@s_h+2,___flmul@b+2
  3876  001F1A  C16F  F014         	movff	powf@s_h+3,___flmul@b+3
  3877  001F1E  C168  F015         	movff	powf@t_h,___flmul@a
  3878  001F22  C169  F016         	movff	powf@t_h+1,___flmul@a+1
  3879  001F26  C16A  F017         	movff	powf@t_h+2,___flmul@a+2
  3880  001F2A  C16B  F018         	movff	powf@t_h+3,___flmul@a+3
  3881  001F2E  ECBA  F01F         	call	___flmul	;wreg free
  3882  001F32  C011  F174         	movff	?___flmul,powf@u
  3883  001F36  C012  F175         	movff	?___flmul+1,powf@u+1
  3884  001F3A  C013  F176         	movff	?___flmul+2,powf@u+2
  3885  001F3E  C014  F177         	movff	?___flmul+3,powf@u+3
  3886  001F42  C168  F015         	movff	powf@t_h,___flmul@a
  3887  001F46  C169  F016         	movff	powf@t_h+1,___flmul@a+1
  3888  001F4A  C16A  F017         	movff	powf@t_h+2,___flmul@a+2
  3889  001F4E  C16B  F018         	movff	powf@t_h+3,___flmul@a+3
  3890  001F52  C130  F011         	movff	powf@s_l,___flmul@b
  3891  001F56  C131  F012         	movff	powf@s_l+1,___flmul@b+1
  3892  001F5A  C132  F013         	movff	powf@s_l+2,___flmul@b+2
  3893  001F5E  C133  F014         	movff	powf@s_l+3,___flmul@b+3
  3894  001F62  ECBA  F01F         	call	___flmul	;wreg free
  3895  001F66  C011  F001         	movff	?___flmul,___fladd@b
  3896  001F6A  C012  F002         	movff	?___flmul+1,___fladd@b+1
  3897  001F6E  C013  F003         	movff	?___flmul+2,___fladd@b+2
  3898  001F72  C014  F004         	movff	?___flmul+3,___fladd@b+3
  3899  001F76  C15C  F015         	movff	powf@s,___flmul@a
  3900  001F7A  C15D  F016         	movff	powf@s+1,___flmul@a+1
  3901  001F7E  C15E  F017         	movff	powf@s+2,___flmul@a+2
  3902  001F82  C15F  F018         	movff	powf@s+3,___flmul@a+3
  3903  001F86  C134  F011         	movff	powf@t_l,___flmul@b
  3904  001F8A  C135  F012         	movff	powf@t_l+1,___flmul@b+1
  3905  001F8E  C136  F013         	movff	powf@t_l+2,___flmul@b+2
  3906  001F92  C137  F014         	movff	powf@t_l+3,___flmul@b+3
  3907  001F96  ECBA  F01F         	call	___flmul	;wreg free
  3908  001F9A  C011  F005         	movff	?___flmul,___fladd@a
  3909  001F9E  C012  F006         	movff	?___flmul+1,___fladd@a+1
  3910  001FA2  C013  F007         	movff	?___flmul+2,___fladd@a+2
  3911  001FA6  C014  F008         	movff	?___flmul+3,___fladd@a+3
  3912  001FAA  EC1C  F01B         	call	___fladd	;wreg free
  3913  001FAE  C001  F178         	movff	?___fladd,powf@v
  3914  001FB2  C002  F179         	movff	?___fladd+1,powf@v+1
  3915  001FB6  C003  F17A         	movff	?___fladd+2,powf@v+2
  3916  001FBA  C004  F17B         	movff	?___fladd+3,powf@v+3
  3917  001FBE  C174  F001         	movff	powf@u,___fladd@b
  3918  001FC2  C175  F002         	movff	powf@u+1,___fladd@b+1
  3919  001FC6  C176  F003         	movff	powf@u+2,___fladd@b+2
  3920  001FCA  C177  F004         	movff	powf@u+3,___fladd@b+3
  3921  001FCE  C178  F005         	movff	powf@v,___fladd@a
  3922  001FD2  C179  F006         	movff	powf@v+1,___fladd@a+1
  3923  001FD6  C17A  F007         	movff	powf@v+2,___fladd@a+2
  3924  001FDA  C17B  F008         	movff	powf@v+3,___fladd@a+3
  3925  001FDE  EC1C  F01B         	call	___fladd	;wreg free
  3926  001FE2  C001  F19C         	movff	?___fladd,powf@p_h
  3927  001FE6  C002  F19D         	movff	?___fladd+1,powf@p_h+1
  3928  001FEA  C003  F19E         	movff	?___fladd+2,powf@p_h+2
  3929  001FEE  C004  F19F         	movff	?___fladd+3,powf@p_h+3
  3930  001FF2  C19C  F1B8         	movff	powf@p_h,powf@__xc8_float_word
  3931  001FF6  C19D  F1B9         	movff	powf@p_h+1,powf@__xc8_float_word+1
  3932  001FFA  C19E  F1BA         	movff	powf@p_h+2,powf@__xc8_float_word+2
  3933  001FFE  C19F  F1BB         	movff	powf@p_h+3,powf@__xc8_float_word+3
  3934  002002  C1B8  F190         	movff	powf@__xc8_float_word,powf@is
  3935  002006  C1B9  F191         	movff	powf@__xc8_float_word+1,powf@is+1
  3936  00200A  C1BA  F192         	movff	powf@__xc8_float_word+2,powf@is+2
  3937  00200E  C1BB  F193         	movff	powf@__xc8_float_word+3,powf@is+3
  3938  002012  0E00               	movlw	0
  3939  002014  0101               	movlb	1	; () banked
  3940  002016  1590               	andwf	powf@is& (0+255),w,b
  3941  002018  6FB8               	movwf	powf@__xc8_float_word& (0+255),b
  3942  00201A  0EF0               	movlw	240
  3943  00201C  1591               	andwf	(powf@is+1)& (0+255),w,b
  3944  00201E  6FB9               	movwf	(powf@__xc8_float_word+1)& (0+255),b
  3945  002020  0EFF               	movlw	255
  3946  002022  1592               	andwf	(powf@is+2)& (0+255),w,b
  3947  002024  6FBA               	movwf	(powf@__xc8_float_word+2)& (0+255),b
  3948  002026  0EFF               	movlw	255
  3949  002028  1593               	andwf	(powf@is+3)& (0+255),w,b
  3950  00202A  6FBB               	movwf	(powf@__xc8_float_word+3)& (0+255),b
  3951  00202C                     
  3952                           ; BSR set to: 1
  3953  00202C  C1B8  F19C         	movff	powf@__xc8_float_word,powf@p_h
  3954  002030  C1B9  F19D         	movff	powf@__xc8_float_word+1,powf@p_h+1
  3955  002034  C1BA  F19E         	movff	powf@__xc8_float_word+2,powf@p_h+2
  3956  002038  C1BB  F19F         	movff	powf@__xc8_float_word+3,powf@p_h+3
  3957  00203C                     
  3958                           ; BSR set to: 1
  3959  00203C  C174  F02E         	movff	powf@u,___flsub@a
  3960  002040  C175  F02F         	movff	powf@u+1,___flsub@a+1
  3961  002044  C176  F030         	movff	powf@u+2,___flsub@a+2
  3962  002048  C177  F031         	movff	powf@u+3,___flsub@a+3
  3963  00204C  C19C  F02A         	movff	powf@p_h,___flsub@b
  3964  002050  C19D  F02B         	movff	powf@p_h+1,___flsub@b+1
  3965  002054  C19E  F02C         	movff	powf@p_h+2,___flsub@b+2
  3966  002058  C19F  F02D         	movff	powf@p_h+3,___flsub@b+3
  3967  00205C  ECE8  F028         	call	___flsub	;wreg free
  3968  002060  C02A  F194         	movff	?___flsub,_powf$962
  3969  002064  C02B  F195         	movff	?___flsub+1,_powf$962+1
  3970  002068  C02C  F196         	movff	?___flsub+2,_powf$962+2
  3971  00206C  C02D  F197         	movff	?___flsub+3,_powf$962+3
  3972  002070  C178  F02A         	movff	powf@v,___flsub@b
  3973  002074  C179  F02B         	movff	powf@v+1,___flsub@b+1
  3974  002078  C17A  F02C         	movff	powf@v+2,___flsub@b+2
  3975  00207C  C17B  F02D         	movff	powf@v+3,___flsub@b+3
  3976  002080  C194  F02E         	movff	_powf$962,___flsub@a
  3977  002084  C195  F02F         	movff	_powf$962+1,___flsub@a+1
  3978  002088  C196  F030         	movff	_powf$962+2,___flsub@a+2
  3979  00208C  C197  F031         	movff	_powf$962+3,___flsub@a+3
  3980  002090  ECE8  F028         	call	___flsub	;wreg free
  3981  002094  C02A  F164         	movff	?___flsub,powf@p_l
  3982  002098  C02B  F165         	movff	?___flsub+1,powf@p_l+1
  3983  00209C  C02C  F166         	movff	?___flsub+2,powf@p_l+2
  3984  0020A0  C02D  F167         	movff	?___flsub+3,powf@p_l+3
  3985  0020A4  C19C  F011         	movff	powf@p_h,___flmul@b
  3986  0020A8  C19D  F012         	movff	powf@p_h+1,___flmul@b+1
  3987  0020AC  C19E  F013         	movff	powf@p_h+2,___flmul@b+2
  3988  0020B0  C19F  F014         	movff	powf@p_h+3,___flmul@b+3
  3989  0020B4  0E00               	movlw	0
  3990  0020B6  6E15               	movwf	___flmul@a^0,c
  3991  0020B8  0E40               	movlw	64
  3992  0020BA  6E16               	movwf	(___flmul@a+1)^0,c
  3993  0020BC  0E76               	movlw	118
  3994  0020BE  6E17               	movwf	(___flmul@a+2)^0,c
  3995  0020C0  0E3F               	movlw	63
  3996  0020C2  6E18               	movwf	(___flmul@a+3)^0,c
  3997  0020C4  ECBA  F01F         	call	___flmul	;wreg free
  3998  0020C8  C011  F120         	movff	?___flmul,powf@z_h
  3999  0020CC  C012  F121         	movff	?___flmul+1,powf@z_h+1
  4000  0020D0  C013  F122         	movff	?___flmul+2,powf@z_h+2
  4001  0020D4  C014  F123         	movff	?___flmul+3,powf@z_h+3
  4002  0020D8  0E4F               	movlw	79
  4003  0020DA  6E15               	movwf	___flmul@a^0,c
  4004  0020DC  0E38               	movlw	56
  4005  0020DE  6E16               	movwf	(___flmul@a+1)^0,c
  4006  0020E0  0E76               	movlw	118
  4007  0020E2  6E17               	movwf	(___flmul@a+2)^0,c
  4008  0020E4  0E3F               	movlw	63
  4009  0020E6  6E18               	movwf	(___flmul@a+3)^0,c
  4010  0020E8  C164  F011         	movff	powf@p_l,___flmul@b
  4011  0020EC  C165  F012         	movff	powf@p_l+1,___flmul@b+1
  4012  0020F0  C166  F013         	movff	powf@p_l+2,___flmul@b+2
  4013  0020F4  C167  F014         	movff	powf@p_l+3,___flmul@b+3
  4014  0020F8  ECBA  F01F         	call	___flmul	;wreg free
  4015  0020FC  C011  F005         	movff	?___flmul,___fladd@a
  4016  002100  C012  F006         	movff	?___flmul+1,___fladd@a+1
  4017  002104  C013  F007         	movff	?___flmul+2,___fladd@a+2
  4018  002108  C014  F008         	movff	?___flmul+3,___fladd@a+3
  4019  00210C  0EC6               	movlw	198
  4020  00210E  6E15               	movwf	___flmul@a^0,c
  4021  002110  0E23               	movlw	35
  4022  002112  6E16               	movwf	(___flmul@a+1)^0,c
  4023  002114  0EF6               	movlw	246
  4024  002116  6E17               	movwf	(___flmul@a+2)^0,c
  4025  002118  0EB8               	movlw	184
  4026  00211A  6E18               	movwf	(___flmul@a+3)^0,c
  4027  00211C  C19C  F011         	movff	powf@p_h,___flmul@b
  4028  002120  C19D  F012         	movff	powf@p_h+1,___flmul@b+1
  4029  002124  C19E  F013         	movff	powf@p_h+2,___flmul@b+2
  4030  002128  C19F  F014         	movff	powf@p_h+3,___flmul@b+3
  4031  00212C  ECBA  F01F         	call	___flmul	;wreg free
  4032  002130  C011  F001         	movff	?___flmul,___fladd@b
  4033  002134  C012  F002         	movff	?___flmul+1,___fladd@b+1
  4034  002138  C013  F003         	movff	?___flmul+2,___fladd@b+2
  4035  00213C  C014  F004         	movff	?___flmul+3,___fladd@b+3
  4036  002140  EC1C  F01B         	call	___fladd	;wreg free
  4037  002144  C001  F158         	movff	?___fladd,_powf$966
  4038  002148  C002  F159         	movff	?___fladd+1,_powf$966+1
  4039  00214C  C003  F15A         	movff	?___fladd+2,_powf$966+2
  4040  002150  C004  F15B         	movff	?___fladd+3,_powf$966+3
  4041  002154  C158  F001         	movff	_powf$966,___fladd@b
  4042  002158  C159  F002         	movff	_powf$966+1,___fladd@b+1
  4043  00215C  C15A  F003         	movff	_powf$966+2,___fladd@b+2
  4044  002160  C15B  F004         	movff	_powf$966+3,___fladd@b+3
  4045  002164  C1A0  F04B         	movff	powf@k,??_powf
  4046  002168  C1A1  F04C         	movff	powf@k+1,??_powf+1
  4047  00216C  90D8               	bcf	status,0,c
  4048  00216E  364B               	rlcf	??_powf^0,f,c
  4049  002170  364C               	rlcf	(??_powf+1)^0,f,c
  4050  002172  90D8               	bcf	status,0,c
  4051  002174  364B               	rlcf	??_powf^0,f,c
  4052  002176  364C               	rlcf	(??_powf+1)^0,f,c
  4053  002178  0E01               	movlw	low _dp_l
  4054  00217A  244B               	addwf	??_powf^0,w,c
  4055  00217C  6EF6               	movwf	tblptrl,c
  4056  00217E  0E08               	movlw	high _dp_l
  4057  002180  204C               	addwfc	(??_powf+1)^0,w,c
  4058  002182  6EF7               	movwf	tblptrh,c
  4059  002184                     	if	0	;There are less than 3 active tblptr bytes
  4060  002184                     	endif
  4061  002184  0009               	tblrd		*+
  4062  002186  CFF5 F005          	movff	tablat,___fladd@a
  4063  00218A  0009               	tblrd		*+
  4064  00218C  CFF5 F006          	movff	tablat,___fladd@a+1
  4065  002190  0009               	tblrd		*+
  4066  002192  CFF5 F007          	movff	tablat,___fladd@a+2
  4067  002196  000A               	tblrd		*-
  4068  002198  CFF5 F008          	movff	tablat,___fladd@a+3
  4069  00219C  EC1C  F01B         	call	___fladd	;wreg free
  4070  0021A0  C001  F124         	movff	?___fladd,powf@z_l
  4071  0021A4  C002  F125         	movff	?___fladd+1,powf@z_l+1
  4072  0021A8  C003  F126         	movff	?___fladd+2,powf@z_l+2
  4073  0021AC  C004  F127         	movff	?___fladd+3,powf@z_l+3
  4074  0021B0  C17C  F001         	movff	powf@n,___xxtofl@val
  4075  0021B4  C17D  F002         	movff	powf@n+1,___xxtofl@val+1
  4076  0021B8  C17E  F003         	movff	powf@n+2,___xxtofl@val+2
  4077  0021BC  C17F  F004         	movff	powf@n+3,___xxtofl@val+3
  4078  0021C0  0E01               	movlw	1
  4079  0021C2  EC08  F026         	call	___xxtofl
  4080  0021C6  C001  F1B0         	movff	?___xxtofl,powf@t
  4081  0021CA  C002  F1B1         	movff	?___xxtofl+1,powf@t+1
  4082  0021CE  C003  F1B2         	movff	?___xxtofl+2,powf@t+2
  4083  0021D2  C004  F1B3         	movff	?___xxtofl+3,powf@t+3
  4084  0021D6  C124  F005         	movff	powf@z_l,___fladd@a
  4085  0021DA  C125  F006         	movff	powf@z_l+1,___fladd@a+1
  4086  0021DE  C126  F007         	movff	powf@z_l+2,___fladd@a+2
  4087  0021E2  C127  F008         	movff	powf@z_l+3,___fladd@a+3
  4088  0021E6  C120  F001         	movff	powf@z_h,___fladd@b
  4089  0021EA  C121  F002         	movff	powf@z_h+1,___fladd@b+1
  4090  0021EE  C122  F003         	movff	powf@z_h+2,___fladd@b+2
  4091  0021F2  C123  F004         	movff	powf@z_h+3,___fladd@b+3
  4092  0021F6  EC1C  F01B         	call	___fladd	;wreg free
  4093  0021FA  C001  F158         	movff	?___fladd,_powf$966
  4094  0021FE  C002  F159         	movff	?___fladd+1,_powf$966+1
  4095  002202  C003  F15A         	movff	?___fladd+2,_powf$966+2
  4096  002206  C004  F15B         	movff	?___fladd+3,_powf$966+3
  4097  00220A  C1A0  F04B         	movff	powf@k,??_powf
  4098  00220E  C1A1  F04C         	movff	powf@k+1,??_powf+1
  4099  002212  90D8               	bcf	status,0,c
  4100  002214  364B               	rlcf	??_powf^0,f,c
  4101  002216  364C               	rlcf	(??_powf+1)^0,f,c
  4102  002218  90D8               	bcf	status,0,c
  4103  00221A  364B               	rlcf	??_powf^0,f,c
  4104  00221C  364C               	rlcf	(??_powf+1)^0,f,c
  4105  00221E  0E09               	movlw	low _dp_h
  4106  002220  244B               	addwf	??_powf^0,w,c
  4107  002222  6EF6               	movwf	tblptrl,c
  4108  002224  0E08               	movlw	high _dp_h
  4109  002226  204C               	addwfc	(??_powf+1)^0,w,c
  4110  002228  6EF7               	movwf	tblptrh,c
  4111  00222A                     	if	0	;There are less than 3 active tblptr bytes
  4112  00222A                     	endif
  4113  00222A  0009               	tblrd		*+
  4114  00222C  CFF5 F005          	movff	tablat,___fladd@a
  4115  002230  0009               	tblrd		*+
  4116  002232  CFF5 F006          	movff	tablat,___fladd@a+1
  4117  002236  0009               	tblrd		*+
  4118  002238  CFF5 F007          	movff	tablat,___fladd@a+2
  4119  00223C  000A               	tblrd		*-
  4120  00223E  CFF5 F008          	movff	tablat,___fladd@a+3
  4121  002242  C158  F001         	movff	_powf$966,___fladd@b
  4122  002246  C159  F002         	movff	_powf$966+1,___fladd@b+1
  4123  00224A  C15A  F003         	movff	_powf$966+2,___fladd@b+2
  4124  00224E  C15B  F004         	movff	_powf$966+3,___fladd@b+3
  4125  002252  EC1C  F01B         	call	___fladd	;wreg free
  4126  002256  C001  F108         	movff	?___fladd,_powf$969
  4127  00225A  C002  F109         	movff	?___fladd+1,_powf$969+1
  4128  00225E  C003  F10A         	movff	?___fladd+2,_powf$969+2
  4129  002262  C004  F10B         	movff	?___fladd+3,_powf$969+3
  4130  002266  C108  F001         	movff	_powf$969,___fladd@b
  4131  00226A  C109  F002         	movff	_powf$969+1,___fladd@b+1
  4132  00226E  C10A  F003         	movff	_powf$969+2,___fladd@b+2
  4133  002272  C10B  F004         	movff	_powf$969+3,___fladd@b+3
  4134  002276  C1B0  F005         	movff	powf@t,___fladd@a
  4135  00227A  C1B1  F006         	movff	powf@t+1,___fladd@a+1
  4136  00227E  C1B2  F007         	movff	powf@t+2,___fladd@a+2
  4137  002282  C1B3  F008         	movff	powf@t+3,___fladd@a+3
  4138  002286  EC1C  F01B         	call	___fladd	;wreg free
  4139  00228A  C001  F180         	movff	?___fladd,powf@t1
  4140  00228E  C002  F181         	movff	?___fladd+1,powf@t1+1
  4141  002292  C003  F182         	movff	?___fladd+2,powf@t1+2
  4142  002296  C004  F183         	movff	?___fladd+3,powf@t1+3
  4143  00229A  C180  F1B8         	movff	powf@t1,powf@__xc8_float_word
  4144  00229E  C181  F1B9         	movff	powf@t1+1,powf@__xc8_float_word+1
  4145  0022A2  C182  F1BA         	movff	powf@t1+2,powf@__xc8_float_word+2
  4146  0022A6  C183  F1BB         	movff	powf@t1+3,powf@__xc8_float_word+3
  4147  0022AA  C1B8  F190         	movff	powf@__xc8_float_word,powf@is
  4148  0022AE  C1B9  F191         	movff	powf@__xc8_float_word+1,powf@is+1
  4149  0022B2  C1BA  F192         	movff	powf@__xc8_float_word+2,powf@is+2
  4150  0022B6  C1BB  F193         	movff	powf@__xc8_float_word+3,powf@is+3
  4151  0022BA  0E00               	movlw	0
  4152  0022BC  0101               	movlb	1	; () banked
  4153  0022BE  1590               	andwf	powf@is& (0+255),w,b
  4154  0022C0  6FB8               	movwf	powf@__xc8_float_word& (0+255),b
  4155  0022C2  0EF0               	movlw	240
  4156  0022C4  1591               	andwf	(powf@is+1)& (0+255),w,b
  4157  0022C6  6FB9               	movwf	(powf@__xc8_float_word+1)& (0+255),b
  4158  0022C8  0EFF               	movlw	255
  4159  0022CA  1592               	andwf	(powf@is+2)& (0+255),w,b
  4160  0022CC  6FBA               	movwf	(powf@__xc8_float_word+2)& (0+255),b
  4161  0022CE  0EFF               	movlw	255
  4162  0022D0  1593               	andwf	(powf@is+3)& (0+255),w,b
  4163  0022D2  6FBB               	movwf	(powf@__xc8_float_word+3)& (0+255),b
  4164  0022D4                     
  4165                           ; BSR set to: 1
  4166  0022D4  C1B8  F180         	movff	powf@__xc8_float_word,powf@t1
  4167  0022D8  C1B9  F181         	movff	powf@__xc8_float_word+1,powf@t1+1
  4168  0022DC  C1BA  F182         	movff	powf@__xc8_float_word+2,powf@t1+2
  4169  0022E0  C1BB  F183         	movff	powf@__xc8_float_word+3,powf@t1+3
  4170  0022E4                     
  4171                           ; BSR set to: 1
  4172  0022E4  C1B0  F02E         	movff	powf@t,___flsub@a
  4173  0022E8  C1B1  F02F         	movff	powf@t+1,___flsub@a+1
  4174  0022EC  C1B2  F030         	movff	powf@t+2,___flsub@a+2
  4175  0022F0  C1B3  F031         	movff	powf@t+3,___flsub@a+3
  4176  0022F4  C180  F02A         	movff	powf@t1,___flsub@b
  4177  0022F8  C181  F02B         	movff	powf@t1+1,___flsub@b+1
  4178  0022FC  C182  F02C         	movff	powf@t1+2,___flsub@b+2
  4179  002300  C183  F02D         	movff	powf@t1+3,___flsub@b+3
  4180  002304  ECE8  F028         	call	___flsub	;wreg free
  4181  002308  C02A  F194         	movff	?___flsub,_powf$962
  4182  00230C  C02B  F195         	movff	?___flsub+1,_powf$962+1
  4183  002310  C02C  F196         	movff	?___flsub+2,_powf$962+2
  4184  002314  C02D  F197         	movff	?___flsub+3,_powf$962+3
  4185  002318  C1A0  F04B         	movff	powf@k,??_powf
  4186  00231C  C1A1  F04C         	movff	powf@k+1,??_powf+1
  4187  002320  90D8               	bcf	status,0,c
  4188  002322  364B               	rlcf	??_powf^0,f,c
  4189  002324  364C               	rlcf	(??_powf+1)^0,f,c
  4190  002326  90D8               	bcf	status,0,c
  4191  002328  364B               	rlcf	??_powf^0,f,c
  4192  00232A  364C               	rlcf	(??_powf+1)^0,f,c
  4193  00232C  0E09               	movlw	low _dp_h
  4194  00232E  244B               	addwf	??_powf^0,w,c
  4195  002330  6EF6               	movwf	tblptrl,c
  4196  002332  0E08               	movlw	high _dp_h
  4197  002334  204C               	addwfc	(??_powf+1)^0,w,c
  4198  002336  6EF7               	movwf	tblptrh,c
  4199  002338                     	if	0	;There are less than 3 active tblptr bytes
  4200  002338                     	endif
  4201  002338  0009               	tblrd		*+
  4202  00233A  CFF5 F02E          	movff	tablat,___flsub@a
  4203  00233E  0009               	tblrd		*+
  4204  002340  CFF5 F02F          	movff	tablat,___flsub@a+1
  4205  002344  0009               	tblrd		*+
  4206  002346  CFF5 F030          	movff	tablat,___flsub@a+2
  4207  00234A  000A               	tblrd		*-
  4208  00234C  CFF5 F031          	movff	tablat,___flsub@a+3
  4209  002350  C194  F02A         	movff	_powf$962,___flsub@b
  4210  002354  C195  F02B         	movff	_powf$962+1,___flsub@b+1
  4211  002358  C196  F02C         	movff	_powf$962+2,___flsub@b+2
  4212  00235C  C197  F02D         	movff	_powf$962+3,___flsub@b+3
  4213  002360  ECE8  F028         	call	___flsub	;wreg free
  4214  002364  C02A  F140         	movff	?___flsub,_powf$968
  4215  002368  C02B  F141         	movff	?___flsub+1,_powf$968+1
  4216  00236C  C02C  F142         	movff	?___flsub+2,_powf$968+2
  4217  002370  C02D  F143         	movff	?___flsub+3,_powf$968+3
  4218  002374  C120  F02E         	movff	powf@z_h,___flsub@a
  4219  002378  C121  F02F         	movff	powf@z_h+1,___flsub@a+1
  4220  00237C  C122  F030         	movff	powf@z_h+2,___flsub@a+2
  4221  002380  C123  F031         	movff	powf@z_h+3,___flsub@a+3
  4222  002384  C140  F02A         	movff	_powf$968,___flsub@b
  4223  002388  C141  F02B         	movff	_powf$968+1,___flsub@b+1
  4224  00238C  C142  F02C         	movff	_powf$968+2,___flsub@b+2
  4225  002390  C143  F02D         	movff	_powf$968+3,___flsub@b+3
  4226  002394  ECE8  F028         	call	___flsub	;wreg free
  4227  002398  C02A  F10C         	movff	?___flsub,_powf$970
  4228  00239C  C02B  F10D         	movff	?___flsub+1,_powf$970+1
  4229  0023A0  C02C  F10E         	movff	?___flsub+2,_powf$970+2
  4230  0023A4  C02D  F10F         	movff	?___flsub+3,_powf$970+3
  4231  0023A8  C124  F02A         	movff	powf@z_l,___flsub@b
  4232  0023AC  C125  F02B         	movff	powf@z_l+1,___flsub@b+1
  4233  0023B0  C126  F02C         	movff	powf@z_l+2,___flsub@b+2
  4234  0023B4  C127  F02D         	movff	powf@z_l+3,___flsub@b+3
  4235  0023B8  C10C  F02E         	movff	_powf$970,___flsub@a
  4236  0023BC  C10D  F02F         	movff	_powf$970+1,___flsub@a+1
  4237  0023C0  C10E  F030         	movff	_powf$970+2,___flsub@a+2
  4238  0023C4  C10F  F031         	movff	_powf$970+3,___flsub@a+3
  4239  0023C8  ECE8  F028         	call	___flsub	;wreg free
  4240  0023CC  C02A  F11C         	movff	?___flsub,powf@t2
  4241  0023D0  C02B  F11D         	movff	?___flsub+1,powf@t2+1
  4242  0023D4  C02C  F11E         	movff	?___flsub+2,powf@t2+2
  4243  0023D8  C02D  F11F         	movff	?___flsub+3,powf@t2+3
  4244  0023DC                     l3529:
  4245  0023DC  C088  F1B8         	movff	powf@y,powf@__xc8_float_word
  4246  0023E0  C089  F1B9         	movff	powf@y+1,powf@__xc8_float_word+1
  4247  0023E4  C08A  F1BA         	movff	powf@y+2,powf@__xc8_float_word+2
  4248  0023E8  C08B  F1BB         	movff	powf@y+3,powf@__xc8_float_word+3
  4249  0023EC  C1B8  F190         	movff	powf@__xc8_float_word,powf@is
  4250  0023F0  C1B9  F191         	movff	powf@__xc8_float_word+1,powf@is+1
  4251  0023F4  C1BA  F192         	movff	powf@__xc8_float_word+2,powf@is+2
  4252  0023F8  C1BB  F193         	movff	powf@__xc8_float_word+3,powf@is+3
  4253  0023FC  0E00               	movlw	0
  4254  0023FE  0101               	movlb	1	; () banked
  4255  002400  1590               	andwf	powf@is& (0+255),w,b
  4256  002402  6FB8               	movwf	powf@__xc8_float_word& (0+255),b
  4257  002404  0EF0               	movlw	240
  4258  002406  1591               	andwf	(powf@is+1)& (0+255),w,b
  4259  002408  6FB9               	movwf	(powf@__xc8_float_word+1)& (0+255),b
  4260  00240A  0EFF               	movlw	255
  4261  00240C  1592               	andwf	(powf@is+2)& (0+255),w,b
  4262  00240E  6FBA               	movwf	(powf@__xc8_float_word+2)& (0+255),b
  4263  002410  0EFF               	movlw	255
  4264  002412  1593               	andwf	(powf@is+3)& (0+255),w,b
  4265  002414  6FBB               	movwf	(powf@__xc8_float_word+3)& (0+255),b
  4266  002416                     
  4267                           ; BSR set to: 1
  4268  002416  C1B8  F128         	movff	powf@__xc8_float_word,powf@y1
  4269  00241A  C1B9  F129         	movff	powf@__xc8_float_word+1,powf@y1+1
  4270  00241E  C1BA  F12A         	movff	powf@__xc8_float_word+2,powf@y1+2
  4271  002422  C1BB  F12B         	movff	powf@__xc8_float_word+3,powf@y1+3
  4272  002426                     
  4273                           ; BSR set to: 1
  4274  002426  C180  F015         	movff	powf@t1,___flmul@a
  4275  00242A  C181  F016         	movff	powf@t1+1,___flmul@a+1
  4276  00242E  C182  F017         	movff	powf@t1+2,___flmul@a+2
  4277  002432  C183  F018         	movff	powf@t1+3,___flmul@a+3
  4278  002436  C128  F02E         	movff	powf@y1,___flsub@a
  4279  00243A  C129  F02F         	movff	powf@y1+1,___flsub@a+1
  4280  00243E  C12A  F030         	movff	powf@y1+2,___flsub@a+2
  4281  002442  C12B  F031         	movff	powf@y1+3,___flsub@a+3
  4282  002446  C088  F02A         	movff	powf@y,___flsub@b
  4283  00244A  C089  F02B         	movff	powf@y+1,___flsub@b+1
  4284  00244E  C08A  F02C         	movff	powf@y+2,___flsub@b+2
  4285  002452  C08B  F02D         	movff	powf@y+3,___flsub@b+3
  4286  002456  ECE8  F028         	call	___flsub	;wreg free
  4287  00245A  C02A  F011         	movff	?___flsub,___flmul@b
  4288  00245E  C02B  F012         	movff	?___flsub+1,___flmul@b+1
  4289  002462  C02C  F013         	movff	?___flsub+2,___flmul@b+2
  4290  002466  C02D  F014         	movff	?___flsub+3,___flmul@b+3
  4291  00246A  ECBA  F01F         	call	___flmul	;wreg free
  4292  00246E  C011  F110         	movff	?___flmul,_powf$971
  4293  002472  C012  F111         	movff	?___flmul+1,_powf$971+1
  4294  002476  C013  F112         	movff	?___flmul+2,_powf$971+2
  4295  00247A  C014  F113         	movff	?___flmul+3,_powf$971+3
  4296  00247E  C110  F001         	movff	_powf$971,___fladd@b
  4297  002482  C111  F002         	movff	_powf$971+1,___fladd@b+1
  4298  002486  C112  F003         	movff	_powf$971+2,___fladd@b+2
  4299  00248A  C113  F004         	movff	_powf$971+3,___fladd@b+3
  4300  00248E  C11C  F015         	movff	powf@t2,___flmul@a
  4301  002492  C11D  F016         	movff	powf@t2+1,___flmul@a+1
  4302  002496  C11E  F017         	movff	powf@t2+2,___flmul@a+2
  4303  00249A  C11F  F018         	movff	powf@t2+3,___flmul@a+3
  4304  00249E  C088  F011         	movff	powf@y,___flmul@b
  4305  0024A2  C089  F012         	movff	powf@y+1,___flmul@b+1
  4306  0024A6  C08A  F013         	movff	powf@y+2,___flmul@b+2
  4307  0024AA  C08B  F014         	movff	powf@y+3,___flmul@b+3
  4308  0024AE  ECBA  F01F         	call	___flmul	;wreg free
  4309  0024B2  C011  F005         	movff	?___flmul,___fladd@a
  4310  0024B6  C012  F006         	movff	?___flmul+1,___fladd@a+1
  4311  0024BA  C013  F007         	movff	?___flmul+2,___fladd@a+2
  4312  0024BE  C014  F008         	movff	?___flmul+3,___fladd@a+3
  4313  0024C2  EC1C  F01B         	call	___fladd	;wreg free
  4314  0024C6  C001  F164         	movff	?___fladd,powf@p_l
  4315  0024CA  C002  F165         	movff	?___fladd+1,powf@p_l+1
  4316  0024CE  C003  F166         	movff	?___fladd+2,powf@p_l+2
  4317  0024D2  C004  F167         	movff	?___fladd+3,powf@p_l+3
  4318  0024D6  C128  F011         	movff	powf@y1,___flmul@b
  4319  0024DA  C129  F012         	movff	powf@y1+1,___flmul@b+1
  4320  0024DE  C12A  F013         	movff	powf@y1+2,___flmul@b+2
  4321  0024E2  C12B  F014         	movff	powf@y1+3,___flmul@b+3
  4322  0024E6  C180  F015         	movff	powf@t1,___flmul@a
  4323  0024EA  C181  F016         	movff	powf@t1+1,___flmul@a+1
  4324  0024EE  C182  F017         	movff	powf@t1+2,___flmul@a+2
  4325  0024F2  C183  F018         	movff	powf@t1+3,___flmul@a+3
  4326  0024F6  ECBA  F01F         	call	___flmul	;wreg free
  4327  0024FA  C011  F19C         	movff	?___flmul,powf@p_h
  4328  0024FE  C012  F19D         	movff	?___flmul+1,powf@p_h+1
  4329  002502  C013  F19E         	movff	?___flmul+2,powf@p_h+2
  4330  002506  C014  F19F         	movff	?___flmul+3,powf@p_h+3
  4331  00250A  C164  F001         	movff	powf@p_l,___fladd@b
  4332  00250E  C165  F002         	movff	powf@p_l+1,___fladd@b+1
  4333  002512  C166  F003         	movff	powf@p_l+2,___fladd@b+2
  4334  002516  C167  F004         	movff	powf@p_l+3,___fladd@b+3
  4335  00251A  C19C  F005         	movff	powf@p_h,___fladd@a
  4336  00251E  C19D  F006         	movff	powf@p_h+1,___fladd@a+1
  4337  002522  C19E  F007         	movff	powf@p_h+2,___fladd@a+2
  4338  002526  C19F  F008         	movff	powf@p_h+3,___fladd@a+3
  4339  00252A  EC1C  F01B         	call	___fladd	;wreg free
  4340  00252E  C001  F1B4         	movff	?___fladd,powf@z
  4341  002532  C002  F1B5         	movff	?___fladd+1,powf@z+1
  4342  002536  C003  F1B6         	movff	?___fladd+2,powf@z+2
  4343  00253A  C004  F1B7         	movff	?___fladd+3,powf@z+3
  4344  00253E  C1B4  F1B8         	movff	powf@z,powf@__xc8_float_word
  4345  002542  C1B5  F1B9         	movff	powf@z+1,powf@__xc8_float_word+1
  4346  002546  C1B6  F1BA         	movff	powf@z+2,powf@__xc8_float_word+2
  4347  00254A  C1B7  F1BB         	movff	powf@z+3,powf@__xc8_float_word+3
  4348  00254E  C1B8  F1AC         	movff	powf@__xc8_float_word,powf@j
  4349  002552  C1B9  F1AD         	movff	powf@__xc8_float_word+1,powf@j+1
  4350  002556  C1BA  F1AE         	movff	powf@__xc8_float_word+2,powf@j+2
  4351  00255A  C1BB  F1AF         	movff	powf@__xc8_float_word+3,powf@j+3
  4352  00255E  0101               	movlb	1	; () banked
  4353  002560  BFAF               	btfsc	(powf@j+3)& (0+255),7,b
  4354  002562  EFBF  F012         	goto	u3761
  4355  002566  05AC               	decf	powf@j& (0+255),w,b
  4356  002568  0E00               	movlw	0
  4357  00256A  59AD               	subwfb	(powf@j+1)& (0+255),w,b
  4358  00256C  0E00               	movlw	0
  4359  00256E  59AE               	subwfb	(powf@j+2)& (0+255),w,b
  4360  002570  0E43               	movlw	67
  4361  002572  59AF               	subwfb	(powf@j+3)& (0+255),w,b
  4362  002574  A0D8               	btfss	status,0,c
  4363  002576  EFBF  F012         	goto	u3761
  4364  00257A  EFC1  F012         	goto	u3760
  4365  00257E                     u3761:
  4366  00257E  EFF7  F012         	goto	l3557
  4367  002582                     u3760:
  4368  002582                     
  4369                           ; BSR set to: 1
  4370  002582  0ECA               	movlw	202
  4371  002584  6E15               	movwf	___flmul@a^0,c
  4372  002586  0EF2               	movlw	242
  4373  002588  6E16               	movwf	(___flmul@a+1)^0,c
  4374  00258A  0E49               	movlw	73
  4375  00258C  6E17               	movwf	(___flmul@a+2)^0,c
  4376  00258E  0E71               	movlw	113
  4377  002590  6E18               	movwf	(___flmul@a+3)^0,c
  4378  002592  C188  F011         	movff	powf@sn,___flmul@b
  4379  002596  C189  F012         	movff	powf@sn+1,___flmul@b+1
  4380  00259A  C18A  F013         	movff	powf@sn+2,___flmul@b+2
  4381  00259E  C18B  F014         	movff	powf@sn+3,___flmul@b+3
  4382  0025A2  ECBA  F01F         	call	___flmul	;wreg free
  4383  0025A6  C011  F1A4         	movff	?___flmul,_powf$959
  4384  0025AA  C012  F1A5         	movff	?___flmul+1,_powf$959+1
  4385  0025AE  C013  F1A6         	movff	?___flmul+2,_powf$959+2
  4386  0025B2  C014  F1A7         	movff	?___flmul+3,_powf$959+3
  4387  0025B6  C1A4  F011         	movff	_powf$959,___flmul@b
  4388  0025BA  C1A5  F012         	movff	_powf$959+1,___flmul@b+1
  4389  0025BE  C1A6  F013         	movff	_powf$959+2,___flmul@b+2
  4390  0025C2  C1A7  F014         	movff	_powf$959+3,___flmul@b+3
  4391  0025C6  0ECA               	movlw	202
  4392  0025C8  6E15               	movwf	___flmul@a^0,c
  4393  0025CA  0EF2               	movlw	242
  4394  0025CC  6E16               	movwf	(___flmul@a+1)^0,c
  4395  0025CE  0E49               	movlw	73
  4396  0025D0  6E17               	movwf	(___flmul@a+2)^0,c
  4397  0025D2  0E71               	movlw	113
  4398  0025D4  6E18               	movwf	(___flmul@a+3)^0,c
  4399  0025D6  ECBA  F01F         	call	___flmul	;wreg free
  4400  0025DA  C011  F084         	movff	?___flmul,?_powf
  4401  0025DE  C012  F085         	movff	?___flmul+1,?_powf+1
  4402  0025E2  C013  F086         	movff	?___flmul+2,?_powf+2
  4403  0025E6  C014  F087         	movff	?___flmul+3,?_powf+3
  4404  0025EA  EFBB  F018         	goto	l866
  4405  0025EE                     l3557:
  4406                           
  4407                           ; BSR set to: 1
  4408  0025EE  0E43               	movlw	67
  4409  0025F0  19AF               	xorwf	(powf@j+3)& (0+255),w,b
  4410  0025F2  11AC               	iorwf	powf@j& (0+255),w,b
  4411  0025F4  11AD               	iorwf	(powf@j+1)& (0+255),w,b
  4412  0025F6  11AE               	iorwf	(powf@j+2)& (0+255),w,b
  4413  0025F8  A4D8               	btfss	status,2,c
  4414  0025FA  EF01  F013         	goto	u3771
  4415  0025FE  EF03  F013         	goto	u3770
  4416  002602                     u3771:
  4417  002602  EF76  F013         	goto	l3565
  4418  002606                     u3770:
  4419  002606                     
  4420                           ; BSR set to: 1
  4421  002606  C19C  F02E         	movff	powf@p_h,___flsub@a
  4422  00260A  C19D  F02F         	movff	powf@p_h+1,___flsub@a+1
  4423  00260E  C19E  F030         	movff	powf@p_h+2,___flsub@a+2
  4424  002612  C19F  F031         	movff	powf@p_h+3,___flsub@a+3
  4425  002616  C1B4  F02A         	movff	powf@z,___flsub@b
  4426  00261A  C1B5  F02B         	movff	powf@z+1,___flsub@b+1
  4427  00261E  C1B6  F02C         	movff	powf@z+2,___flsub@b+2
  4428  002622  C1B7  F02D         	movff	powf@z+3,___flsub@b+3
  4429  002626  ECE8  F028         	call	___flsub	;wreg free
  4430  00262A  C02A  F032         	movff	?___flsub,___flge@ff1
  4431  00262E  C02B  F033         	movff	?___flsub+1,___flge@ff1+1
  4432  002632  C02C  F034         	movff	?___flsub+2,___flge@ff1+2
  4433  002636  C02D  F035         	movff	?___flsub+3,___flge@ff1+3
  4434  00263A  0E3C               	movlw	60
  4435  00263C  6E05               	movwf	___fladd@a^0,c
  4436  00263E  0EAA               	movlw	170
  4437  002640  6E06               	movwf	(___fladd@a+1)^0,c
  4438  002642  0E38               	movlw	56
  4439  002644  6E07               	movwf	(___fladd@a+2)^0,c
  4440  002646  0E33               	movlw	51
  4441  002648  6E08               	movwf	(___fladd@a+3)^0,c
  4442  00264A  C164  F001         	movff	powf@p_l,___fladd@b
  4443  00264E  C165  F002         	movff	powf@p_l+1,___fladd@b+1
  4444  002652  C166  F003         	movff	powf@p_l+2,___fladd@b+2
  4445  002656  C167  F004         	movff	powf@p_l+3,___fladd@b+3
  4446  00265A  EC1C  F01B         	call	___fladd	;wreg free
  4447  00265E  C001  F036         	movff	?___fladd,___flge@ff2
  4448  002662  C002  F037         	movff	?___fladd+1,___flge@ff2+1
  4449  002666  C003  F038         	movff	?___fladd+2,___flge@ff2+2
  4450  00266A  C004  F039         	movff	?___fladd+3,___flge@ff2+3
  4451  00266E  ECF8  F027         	call	___flge	;wreg free
  4452  002672  B0D8               	btfsc	status,0,c
  4453  002674  EF3E  F013         	goto	u3781
  4454  002678  EF40  F013         	goto	u3780
  4455  00267C                     u3781:
  4456  00267C  EF38  F014         	goto	l3581
  4457  002680                     u3780:
  4458  002680  0ECA               	movlw	202
  4459  002682  6E15               	movwf	___flmul@a^0,c
  4460  002684  0EF2               	movlw	242
  4461  002686  6E16               	movwf	(___flmul@a+1)^0,c
  4462  002688  0E49               	movlw	73
  4463  00268A  6E17               	movwf	(___flmul@a+2)^0,c
  4464  00268C  0E71               	movlw	113
  4465  00268E  6E18               	movwf	(___flmul@a+3)^0,c
  4466  002690  C188  F011         	movff	powf@sn,___flmul@b
  4467  002694  C189  F012         	movff	powf@sn+1,___flmul@b+1
  4468  002698  C18A  F013         	movff	powf@sn+2,___flmul@b+2
  4469  00269C  C18B  F014         	movff	powf@sn+3,___flmul@b+3
  4470  0026A0  ECBA  F01F         	call	___flmul	;wreg free
  4471  0026A4  C011  F1A4         	movff	?___flmul,_powf$959
  4472  0026A8  C012  F1A5         	movff	?___flmul+1,_powf$959+1
  4473  0026AC  C013  F1A6         	movff	?___flmul+2,_powf$959+2
  4474  0026B0  C014  F1A7         	movff	?___flmul+3,_powf$959+3
  4475  0026B4  C1A4  F011         	movff	_powf$959,___flmul@b
  4476  0026B8  C1A5  F012         	movff	_powf$959+1,___flmul@b+1
  4477  0026BC  C1A6  F013         	movff	_powf$959+2,___flmul@b+2
  4478  0026C0  C1A7  F014         	movff	_powf$959+3,___flmul@b+3
  4479  0026C4  0ECA               	movlw	202
  4480  0026C6  6E15               	movwf	___flmul@a^0,c
  4481  0026C8  0EF2               	movlw	242
  4482  0026CA  6E16               	movwf	(___flmul@a+1)^0,c
  4483  0026CC  0E49               	movlw	73
  4484  0026CE  6E17               	movwf	(___flmul@a+2)^0,c
  4485  0026D0  0E71               	movlw	113
  4486  0026D2  6E18               	movwf	(___flmul@a+3)^0,c
  4487  0026D4  ECBA  F01F         	call	___flmul	;wreg free
  4488  0026D8  C011  F084         	movff	?___flmul,?_powf
  4489  0026DC  C012  F085         	movff	?___flmul+1,?_powf+1
  4490  0026E0  C013  F086         	movff	?___flmul+2,?_powf+2
  4491  0026E4  C014  F087         	movff	?___flmul+3,?_powf+3
  4492  0026E8  EFBB  F018         	goto	l866
  4493  0026EC                     l3565:
  4494                           
  4495                           ; BSR set to: 1
  4496  0026EC  0EFF               	movlw	255
  4497  0026EE  15AC               	andwf	powf@j& (0+255),w,b
  4498  0026F0  6E4B               	movwf	??_powf^0,c
  4499  0026F2  0EFF               	movlw	255
  4500  0026F4  15AD               	andwf	(powf@j+1)& (0+255),w,b
  4501  0026F6  6E4C               	movwf	(??_powf+1)^0,c
  4502  0026F8  0EFF               	movlw	255
  4503  0026FA  15AE               	andwf	(powf@j+2)& (0+255),w,b
  4504  0026FC  6E4D               	movwf	(??_powf+2)^0,c
  4505  0026FE  0E7F               	movlw	127
  4506  002700  15AF               	andwf	(powf@j+3)& (0+255),w,b
  4507  002702  6E4E               	movwf	(??_powf+3)^0,c
  4508  002704  BE4E               	btfsc	(??_powf+3)^0,7,c
  4509  002706  EF91  F013         	goto	u3791
  4510  00270A  044B               	decf	??_powf^0,w,c
  4511  00270C  0E00               	movlw	0
  4512  00270E  584C               	subwfb	(??_powf+1)^0,w,c
  4513  002710  0E16               	movlw	22
  4514  002712  584D               	subwfb	(??_powf+2)^0,w,c
  4515  002714  0E43               	movlw	67
  4516  002716  584E               	subwfb	(??_powf+3)^0,w,c
  4517  002718  A0D8               	btfss	status,0,c
  4518  00271A  EF91  F013         	goto	u3791
  4519  00271E  EF93  F013         	goto	u3790
  4520  002722                     u3791:
  4521  002722  EFC9  F013         	goto	l3573
  4522  002726                     u3790:
  4523  002726                     
  4524                           ; BSR set to: 1
  4525  002726  0E60               	movlw	96
  4526  002728  6E15               	movwf	___flmul@a^0,c
  4527  00272A  0E42               	movlw	66
  4528  00272C  6E16               	movwf	(___flmul@a+1)^0,c
  4529  00272E  0EA2               	movlw	162
  4530  002730  6E17               	movwf	(___flmul@a+2)^0,c
  4531  002732  0E0D               	movlw	13
  4532  002734  6E18               	movwf	(___flmul@a+3)^0,c
  4533  002736  C188  F011         	movff	powf@sn,___flmul@b
  4534  00273A  C189  F012         	movff	powf@sn+1,___flmul@b+1
  4535  00273E  C18A  F013         	movff	powf@sn+2,___flmul@b+2
  4536  002742  C18B  F014         	movff	powf@sn+3,___flmul@b+3
  4537  002746  ECBA  F01F         	call	___flmul	;wreg free
  4538  00274A  C011  F1A4         	movff	?___flmul,_powf$959
  4539  00274E  C012  F1A5         	movff	?___flmul+1,_powf$959+1
  4540  002752  C013  F1A6         	movff	?___flmul+2,_powf$959+2
  4541  002756  C014  F1A7         	movff	?___flmul+3,_powf$959+3
  4542  00275A  C1A4  F011         	movff	_powf$959,___flmul@b
  4543  00275E  C1A5  F012         	movff	_powf$959+1,___flmul@b+1
  4544  002762  C1A6  F013         	movff	_powf$959+2,___flmul@b+2
  4545  002766  C1A7  F014         	movff	_powf$959+3,___flmul@b+3
  4546  00276A  0E60               	movlw	96
  4547  00276C  6E15               	movwf	___flmul@a^0,c
  4548  00276E  0E42               	movlw	66
  4549  002770  6E16               	movwf	(___flmul@a+1)^0,c
  4550  002772  0EA2               	movlw	162
  4551  002774  6E17               	movwf	(___flmul@a+2)^0,c
  4552  002776  0E0D               	movlw	13
  4553  002778  6E18               	movwf	(___flmul@a+3)^0,c
  4554  00277A  ECBA  F01F         	call	___flmul	;wreg free
  4555  00277E  C011  F084         	movff	?___flmul,?_powf
  4556  002782  C012  F085         	movff	?___flmul+1,?_powf+1
  4557  002786  C013  F086         	movff	?___flmul+2,?_powf+2
  4558  00278A  C014  F087         	movff	?___flmul+3,?_powf+3
  4559  00278E  EFBB  F018         	goto	l866
  4560  002792                     l3573:
  4561                           
  4562                           ; BSR set to: 1
  4563  002792  0E16               	movlw	22
  4564  002794  19AE               	xorwf	(powf@j+2)& (0+255),w,b
  4565  002796  E109               	bnz	u3801
  4566  002798  0EC3               	movlw	195
  4567  00279A  19AF               	xorwf	(powf@j+3)& (0+255),w,b
  4568  00279C  11AC               	iorwf	powf@j& (0+255),w,b
  4569  00279E  11AD               	iorwf	(powf@j+1)& (0+255),w,b
  4570  0027A0  A4D8               	btfss	status,2,c
  4571  0027A2  EFD5  F013         	goto	u3801
  4572  0027A6  EFD7  F013         	goto	u3800
  4573  0027AA                     u3801:
  4574  0027AA  EF38  F014         	goto	l3581
  4575  0027AE                     u3800:
  4576  0027AE                     
  4577                           ; BSR set to: 1
  4578  0027AE  C19C  F02E         	movff	powf@p_h,___flsub@a
  4579  0027B2  C19D  F02F         	movff	powf@p_h+1,___flsub@a+1
  4580  0027B6  C19E  F030         	movff	powf@p_h+2,___flsub@a+2
  4581  0027BA  C19F  F031         	movff	powf@p_h+3,___flsub@a+3
  4582  0027BE  C1B4  F02A         	movff	powf@z,___flsub@b
  4583  0027C2  C1B5  F02B         	movff	powf@z+1,___flsub@b+1
  4584  0027C6  C1B6  F02C         	movff	powf@z+2,___flsub@b+2
  4585  0027CA  C1B7  F02D         	movff	powf@z+3,___flsub@b+3
  4586  0027CE  ECE8  F028         	call	___flsub	;wreg free
  4587  0027D2  C02A  F032         	movff	?___flsub,___flge@ff1
  4588  0027D6  C02B  F033         	movff	?___flsub+1,___flge@ff1+1
  4589  0027DA  C02C  F034         	movff	?___flsub+2,___flge@ff1+2
  4590  0027DE  C02D  F035         	movff	?___flsub+3,___flge@ff1+3
  4591  0027E2  C164  F036         	movff	powf@p_l,___flge@ff2
  4592  0027E6  C165  F037         	movff	powf@p_l+1,___flge@ff2+1
  4593  0027EA  C166  F038         	movff	powf@p_l+2,___flge@ff2+2
  4594  0027EE  C167  F039         	movff	powf@p_l+3,___flge@ff2+3
  4595  0027F2  ECF8  F027         	call	___flge	;wreg free
  4596  0027F6  A0D8               	btfss	status,0,c
  4597  0027F8  EF00  F014         	goto	u3811
  4598  0027FC  EF02  F014         	goto	u3810
  4599  002800                     u3811:
  4600  002800  EF38  F014         	goto	l3581
  4601  002804                     u3810:
  4602  002804  0E60               	movlw	96
  4603  002806  6E15               	movwf	___flmul@a^0,c
  4604  002808  0E42               	movlw	66
  4605  00280A  6E16               	movwf	(___flmul@a+1)^0,c
  4606  00280C  0EA2               	movlw	162
  4607  00280E  6E17               	movwf	(___flmul@a+2)^0,c
  4608  002810  0E0D               	movlw	13
  4609  002812  6E18               	movwf	(___flmul@a+3)^0,c
  4610  002814  C188  F011         	movff	powf@sn,___flmul@b
  4611  002818  C189  F012         	movff	powf@sn+1,___flmul@b+1
  4612  00281C  C18A  F013         	movff	powf@sn+2,___flmul@b+2
  4613  002820  C18B  F014         	movff	powf@sn+3,___flmul@b+3
  4614  002824  ECBA  F01F         	call	___flmul	;wreg free
  4615  002828  C011  F1A4         	movff	?___flmul,_powf$959
  4616  00282C  C012  F1A5         	movff	?___flmul+1,_powf$959+1
  4617  002830  C013  F1A6         	movff	?___flmul+2,_powf$959+2
  4618  002834  C014  F1A7         	movff	?___flmul+3,_powf$959+3
  4619  002838  C1A4  F011         	movff	_powf$959,___flmul@b
  4620  00283C  C1A5  F012         	movff	_powf$959+1,___flmul@b+1
  4621  002840  C1A6  F013         	movff	_powf$959+2,___flmul@b+2
  4622  002844  C1A7  F014         	movff	_powf$959+3,___flmul@b+3
  4623  002848  0E60               	movlw	96
  4624  00284A  6E15               	movwf	___flmul@a^0,c
  4625  00284C  0E42               	movlw	66
  4626  00284E  6E16               	movwf	(___flmul@a+1)^0,c
  4627  002850  0EA2               	movlw	162
  4628  002852  6E17               	movwf	(___flmul@a+2)^0,c
  4629  002854  0E0D               	movlw	13
  4630  002856  6E18               	movwf	(___flmul@a+3)^0,c
  4631  002858  ECBA  F01F         	call	___flmul	;wreg free
  4632  00285C  C011  F084         	movff	?___flmul,?_powf
  4633  002860  C012  F085         	movff	?___flmul+1,?_powf+1
  4634  002864  C013  F086         	movff	?___flmul+2,?_powf+2
  4635  002868  C014  F087         	movff	?___flmul+3,?_powf+3
  4636  00286C  EFBB  F018         	goto	l866
  4637  002870                     l3581:
  4638  002870  0EFF               	movlw	255
  4639  002872  0101               	movlb	1	; () banked
  4640  002874  15AC               	andwf	powf@j& (0+255),w,b
  4641  002876  6F2C               	movwf	powf@i& (0+255),b
  4642  002878  0EFF               	movlw	255
  4643  00287A  15AD               	andwf	(powf@j+1)& (0+255),w,b
  4644  00287C  6F2D               	movwf	(powf@i+1)& (0+255),b
  4645  00287E  0EFF               	movlw	255
  4646  002880  15AE               	andwf	(powf@j+2)& (0+255),w,b
  4647  002882  6F2E               	movwf	(powf@i+2)& (0+255),b
  4648  002884  0E7F               	movlw	127
  4649  002886  15AF               	andwf	(powf@j+3)& (0+255),w,b
  4650  002888  6F2F               	movwf	(powf@i+3)& (0+255),b
  4651  00288A  0E17               	movlw	23
  4652  00288C  6E4B               	movwf	??_powf^0,c
  4653  00288E  C12C  F04C         	movff	powf@i,??_powf+1
  4654  002892  C12D  F04D         	movff	powf@i+1,??_powf+2
  4655  002896  C12E  F04E         	movff	powf@i+2,??_powf+3
  4656  00289A  C12F  F04F         	movff	powf@i+3,??_powf+4
  4657  00289E                     u3825:
  4658  00289E  664B               	tstfsz	??_powf^0,c
  4659  0028A0  EF54  F014         	goto	u3826
  4660  0028A4  EF5C  F014         	goto	u3827
  4661  0028A8                     u3826:
  4662  0028A8  344F               	rlcf	(??_powf+4)^0,w,c
  4663  0028AA  324F               	rrcf	(??_powf+4)^0,f,c
  4664  0028AC  324E               	rrcf	(??_powf+3)^0,f,c
  4665  0028AE  324D               	rrcf	(??_powf+2)^0,f,c
  4666  0028B0  324C               	rrcf	(??_powf+1)^0,f,c
  4667  0028B2  2E4B               	decfsz	??_powf^0,f,c
  4668  0028B4  EF4F  F014         	goto	u3825
  4669  0028B8                     u3827:
  4670  0028B8  0E81               	movlw	129
  4671  0028BA  244C               	addwf	(??_powf+1)^0,w,c
  4672  0028BC  0101               	movlb	1	; () banked
  4673  0028BE  6FA0               	movwf	powf@k& (0+255),b
  4674  0028C0  0EFF               	movlw	255
  4675  0028C2  204D               	addwfc	(??_powf+2)^0,w,c
  4676  0028C4  6FA1               	movwf	(powf@k+1)& (0+255),b
  4677  0028C6  0EFF               	movlw	255
  4678  0028C8  204E               	addwfc	(??_powf+3)^0,w,c
  4679  0028CA  6FA2               	movwf	(powf@k+2)& (0+255),b
  4680  0028CC  0EFF               	movlw	255
  4681  0028CE  204F               	addwfc	(??_powf+4)^0,w,c
  4682  0028D0  6FA3               	movwf	(powf@k+3)& (0+255),b
  4683  0028D2                     
  4684                           ; BSR set to: 1
  4685  0028D2  0E00               	movlw	0
  4686  0028D4  6F7C               	movwf	powf@n& (0+255),b
  4687  0028D6  0E00               	movlw	0
  4688  0028D8  6F7D               	movwf	(powf@n+1)& (0+255),b
  4689  0028DA  0E00               	movlw	0
  4690  0028DC  6F7E               	movwf	(powf@n+2)& (0+255),b
  4691  0028DE  0E00               	movlw	0
  4692  0028E0  6F7F               	movwf	(powf@n+3)& (0+255),b
  4693  0028E2                     
  4694                           ; BSR set to: 1
  4695  0028E2  BF2F               	btfsc	(powf@i+3)& (0+255),7,b
  4696  0028E4  EF80  F014         	goto	u3831
  4697  0028E8  052C               	decf	powf@i& (0+255),w,b
  4698  0028EA  0E00               	movlw	0
  4699  0028EC  592D               	subwfb	(powf@i+1)& (0+255),w,b
  4700  0028EE  0E00               	movlw	0
  4701  0028F0  592E               	subwfb	(powf@i+2)& (0+255),w,b
  4702  0028F2  0E3F               	movlw	63
  4703  0028F4  592F               	subwfb	(powf@i+3)& (0+255),w,b
  4704  0028F6  A0D8               	btfss	status,0,c
  4705  0028F8  EF80  F014         	goto	u3831
  4706  0028FC  EF82  F014         	goto	u3830
  4707  002900                     u3831:
  4708  002900  EF62  F015         	goto	l3595
  4709  002904                     u3830:
  4710  002904                     
  4711                           ; BSR set to: 1
  4712  002904  C1A0  F04B         	movff	powf@k,??_powf
  4713  002908  0E01               	movlw	1
  4714  00290A  264B               	addwf	??_powf^0,f,c
  4715  00290C  0E00               	movlw	0
  4716  00290E  6E4C               	movwf	(??_powf+1)^0,c
  4717  002910  0E00               	movlw	0
  4718  002912  6E4D               	movwf	(??_powf+2)^0,c
  4719  002914  0E80               	movlw	128
  4720  002916  6E4E               	movwf	(??_powf+3)^0,c
  4721  002918  0E00               	movlw	0
  4722  00291A  6E4F               	movwf	(??_powf+4)^0,c
  4723  00291C                     u3845:
  4724  00291C  664B               	tstfsz	??_powf^0,c
  4725  00291E  EF93  F014         	goto	u3846
  4726  002922  EF9B  F014         	goto	u3847
  4727  002926                     u3846:
  4728  002926  344F               	rlcf	(??_powf+4)^0,w,c
  4729  002928  324F               	rrcf	(??_powf+4)^0,f,c
  4730  00292A  324E               	rrcf	(??_powf+3)^0,f,c
  4731  00292C  324D               	rrcf	(??_powf+2)^0,f,c
  4732  00292E  324C               	rrcf	(??_powf+1)^0,f,c
  4733  002930  2E4B               	decfsz	??_powf^0,f,c
  4734  002932  EF8E  F014         	goto	u3845
  4735  002936                     u3847:
  4736  002936  0101               	movlb	1	; () banked
  4737  002938  51AC               	movf	powf@j& (0+255),w,b
  4738  00293A  244C               	addwf	(??_powf+1)^0,w,c
  4739  00293C  6F7C               	movwf	powf@n& (0+255),b
  4740  00293E  51AD               	movf	(powf@j+1)& (0+255),w,b
  4741  002940  204D               	addwfc	(??_powf+2)^0,w,c
  4742  002942  6F7D               	movwf	(powf@n+1)& (0+255),b
  4743  002944  51AE               	movf	(powf@j+2)& (0+255),w,b
  4744  002946  204E               	addwfc	(??_powf+3)^0,w,c
  4745  002948  6F7E               	movwf	(powf@n+2)& (0+255),b
  4746  00294A  51AF               	movf	(powf@j+3)& (0+255),w,b
  4747  00294C  204F               	addwfc	(??_powf+4)^0,w,c
  4748  00294E  6F7F               	movwf	(powf@n+3)& (0+255),b
  4749  002950  0E81               	movlw	129
  4750  002952  6E4B               	movwf	??_powf^0,c
  4751  002954  0EFF               	movlw	255
  4752  002956  6E4C               	movwf	(??_powf+1)^0,c
  4753  002958  0EFF               	movlw	255
  4754  00295A  6E4D               	movwf	(??_powf+2)^0,c
  4755  00295C  0EFF               	movlw	255
  4756  00295E  6E4E               	movwf	(??_powf+3)^0,c
  4757  002960  0E17               	movlw	23
  4758  002962  6E4F               	movwf	(??_powf+4)^0,c
  4759  002964  C17C  F050         	movff	powf@n,??_powf+5
  4760  002968  C17D  F051         	movff	powf@n+1,??_powf+6
  4761  00296C  C17E  F052         	movff	powf@n+2,??_powf+7
  4762  002970  C17F  F053         	movff	powf@n+3,??_powf+8
  4763  002974                     u3855:
  4764  002974  664F               	tstfsz	(??_powf+4)^0,c
  4765  002976  EFBF  F014         	goto	u3856
  4766  00297A  EFC7  F014         	goto	u3857
  4767  00297E                     u3856:
  4768  00297E  3453               	rlcf	(??_powf+8)^0,w,c
  4769  002980  3253               	rrcf	(??_powf+8)^0,f,c
  4770  002982  3252               	rrcf	(??_powf+7)^0,f,c
  4771  002984  3251               	rrcf	(??_powf+6)^0,f,c
  4772  002986  3250               	rrcf	(??_powf+5)^0,f,c
  4773  002988  2E4F               	decfsz	(??_powf+4)^0,f,c
  4774  00298A  EFBA  F014         	goto	u3855
  4775  00298E                     u3857:
  4776  00298E  5050               	movf	(??_powf+5)^0,w,c
  4777  002990  244B               	addwf	??_powf^0,w,c
  4778  002992  0101               	movlb	1	; () banked
  4779  002994  6FA0               	movwf	powf@k& (0+255),b
  4780  002996  0E00               	movlw	0
  4781  002998  204C               	addwfc	(??_powf+1)^0,w,c
  4782  00299A  6FA1               	movwf	(powf@k+1)& (0+255),b
  4783  00299C  0E00               	movlw	0
  4784  00299E  204D               	addwfc	(??_powf+2)^0,w,c
  4785  0029A0  6FA2               	movwf	(powf@k+2)& (0+255),b
  4786  0029A2  0E00               	movlw	0
  4787  0029A4  204E               	addwfc	(??_powf+3)^0,w,c
  4788  0029A6  6FA3               	movwf	(powf@k+3)& (0+255),b
  4789  0029A8                     
  4790                           ; BSR set to: 1
  4791  0029A8  C1A0  F04B         	movff	powf@k,??_powf
  4792  0029AC  0EFF               	movlw	255
  4793  0029AE  6E4C               	movwf	(??_powf+1)^0,c
  4794  0029B0  0EFF               	movlw	255
  4795  0029B2  6E4D               	movwf	(??_powf+2)^0,c
  4796  0029B4  0E7F               	movlw	127
  4797  0029B6  6E4E               	movwf	(??_powf+3)^0,c
  4798  0029B8  0E00               	movlw	0
  4799  0029BA  6E4F               	movwf	(??_powf+4)^0,c
  4800  0029BC                     u3865:
  4801  0029BC  664B               	tstfsz	??_powf^0,c
  4802  0029BE  EFE3  F014         	goto	u3866
  4803  0029C2  EFEB  F014         	goto	u3867
  4804  0029C6                     u3866:
  4805  0029C6  344F               	rlcf	(??_powf+4)^0,w,c
  4806  0029C8  324F               	rrcf	(??_powf+4)^0,f,c
  4807  0029CA  324E               	rrcf	(??_powf+3)^0,f,c
  4808  0029CC  324D               	rrcf	(??_powf+2)^0,f,c
  4809  0029CE  324C               	rrcf	(??_powf+1)^0,f,c
  4810  0029D0  2E4B               	decfsz	??_powf^0,f,c
  4811  0029D2  EFDE  F014         	goto	u3865
  4812  0029D6                     u3867:
  4813  0029D6  1C4C               	comf	(??_powf+1)^0,w,c
  4814  0029D8  6E50               	movwf	(??_powf+5)^0,c
  4815  0029DA  1C4D               	comf	(??_powf+2)^0,w,c
  4816  0029DC  6E51               	movwf	(??_powf+6)^0,c
  4817  0029DE  1C4E               	comf	(??_powf+3)^0,w,c
  4818  0029E0  6E52               	movwf	(??_powf+7)^0,c
  4819  0029E2  1C4F               	comf	(??_powf+4)^0,w,c
  4820  0029E4  6E53               	movwf	(??_powf+8)^0,c
  4821  0029E6  0101               	movlb	1	; () banked
  4822  0029E8  517C               	movf	powf@n& (0+255),w,b
  4823  0029EA  1450               	andwf	(??_powf+5)^0,w,c
  4824  0029EC  6FB8               	movwf	powf@__xc8_float_word& (0+255),b
  4825  0029EE  517D               	movf	(powf@n+1)& (0+255),w,b
  4826  0029F0  1451               	andwf	(??_powf+6)^0,w,c
  4827  0029F2  6FB9               	movwf	(powf@__xc8_float_word+1)& (0+255),b
  4828  0029F4  517E               	movf	(powf@n+2)& (0+255),w,b
  4829  0029F6  1452               	andwf	(??_powf+7)^0,w,c
  4830  0029F8  6FBA               	movwf	(powf@__xc8_float_word+2)& (0+255),b
  4831  0029FA  517F               	movf	(powf@n+3)& (0+255),w,b
  4832  0029FC  1453               	andwf	(??_powf+8)^0,w,c
  4833  0029FE  6FBB               	movwf	(powf@__xc8_float_word+3)& (0+255),b
  4834  002A00                     
  4835                           ; BSR set to: 1
  4836  002A00  C1B8  F1B0         	movff	powf@__xc8_float_word,powf@t
  4837  002A04  C1B9  F1B1         	movff	powf@__xc8_float_word+1,powf@t+1
  4838  002A08  C1BA  F1B2         	movff	powf@__xc8_float_word+2,powf@t+2
  4839  002A0C  C1BB  F1B3         	movff	powf@__xc8_float_word+3,powf@t+3
  4840  002A10                     
  4841                           ; BSR set to: 1
  4842  002A10  51A0               	movf	powf@k& (0+255),w,b
  4843  002A12  0817               	sublw	23
  4844  002A14  6E4B               	movwf	??_powf^0,c
  4845  002A16  0EFF               	movlw	255
  4846  002A18  157C               	andwf	powf@n& (0+255),w,b
  4847  002A1A  6E4C               	movwf	(??_powf+1)^0,c
  4848  002A1C  0EFF               	movlw	255
  4849  002A1E  157D               	andwf	(powf@n+1)& (0+255),w,b
  4850  002A20  6E4D               	movwf	(??_powf+2)^0,c
  4851  002A22  0E7F               	movlw	127
  4852  002A24  157E               	andwf	(powf@n+2)& (0+255),w,b
  4853  002A26  6E4E               	movwf	(??_powf+3)^0,c
  4854  002A28  0E00               	movlw	0
  4855  002A2A  157F               	andwf	(powf@n+3)& (0+255),w,b
  4856  002A2C  6E4F               	movwf	(??_powf+4)^0,c
  4857  002A2E  0E00               	movlw	0
  4858  002A30  104C               	iorwf	(??_powf+1)^0,w,c
  4859  002A32  6E50               	movwf	(??_powf+5)^0,c
  4860  002A34  0E00               	movlw	0
  4861  002A36  104D               	iorwf	(??_powf+2)^0,w,c
  4862  002A38  6E51               	movwf	(??_powf+6)^0,c
  4863  002A3A  0E80               	movlw	128
  4864  002A3C  104E               	iorwf	(??_powf+3)^0,w,c
  4865  002A3E  6E52               	movwf	(??_powf+7)^0,c
  4866  002A40  0E00               	movlw	0
  4867  002A42  104F               	iorwf	(??_powf+4)^0,w,c
  4868  002A44  6E53               	movwf	(??_powf+8)^0,c
  4869  002A46                     u3875:
  4870  002A46  664B               	tstfsz	??_powf^0,c
  4871  002A48  EF28  F015         	goto	u3876
  4872  002A4C  EF30  F015         	goto	u3877
  4873  002A50                     u3876:
  4874  002A50  3453               	rlcf	(??_powf+8)^0,w,c
  4875  002A52  3253               	rrcf	(??_powf+8)^0,f,c
  4876  002A54  3252               	rrcf	(??_powf+7)^0,f,c
  4877  002A56  3251               	rrcf	(??_powf+6)^0,f,c
  4878  002A58  3250               	rrcf	(??_powf+5)^0,f,c
  4879  002A5A  2E4B               	decfsz	??_powf^0,f,c
  4880  002A5C  EF23  F015         	goto	u3875
  4881  002A60                     u3877:
  4882  002A60  C050  F17C         	movff	??_powf+5,powf@n
  4883  002A64  C051  F17D         	movff	??_powf+6,powf@n+1
  4884  002A68  C052  F17E         	movff	??_powf+7,powf@n+2
  4885  002A6C  C053  F17F         	movff	??_powf+8,powf@n+3
  4886  002A70  0101               	movlb	1	; () banked
  4887  002A72  BFAF               	btfsc	(powf@j+3)& (0+255),7,b
  4888  002A74  EF40  F015         	goto	u3880
  4889  002A78  EF3E  F015         	goto	u3881
  4890  002A7C                     u3881:
  4891  002A7C  EF48  F015         	goto	l3593
  4892  002A80                     u3880:
  4893  002A80                     
  4894                           ; BSR set to: 1
  4895  002A80  1F7F               	comf	(powf@n+3)& (0+255),f,b
  4896  002A82  1F7E               	comf	(powf@n+2)& (0+255),f,b
  4897  002A84  1F7D               	comf	(powf@n+1)& (0+255),f,b
  4898  002A86  6D7C               	negf	powf@n& (0+255),b
  4899  002A88  0E00               	movlw	0
  4900  002A8A  237D               	addwfc	(powf@n+1)& (0+255),f,b
  4901  002A8C  237E               	addwfc	(powf@n+2)& (0+255),f,b
  4902  002A8E  237F               	addwfc	(powf@n+3)& (0+255),f,b
  4903  002A90                     l3593:
  4904                           
  4905                           ; BSR set to: 1
  4906  002A90  C19C  F02A         	movff	powf@p_h,___flsub@b
  4907  002A94  C19D  F02B         	movff	powf@p_h+1,___flsub@b+1
  4908  002A98  C19E  F02C         	movff	powf@p_h+2,___flsub@b+2
  4909  002A9C  C19F  F02D         	movff	powf@p_h+3,___flsub@b+3
  4910  002AA0  C1B0  F02E         	movff	powf@t,___flsub@a
  4911  002AA4  C1B1  F02F         	movff	powf@t+1,___flsub@a+1
  4912  002AA8  C1B2  F030         	movff	powf@t+2,___flsub@a+2
  4913  002AAC  C1B3  F031         	movff	powf@t+3,___flsub@a+3
  4914  002AB0  ECE8  F028         	call	___flsub	;wreg free
  4915  002AB4  C02A  F19C         	movff	?___flsub,powf@p_h
  4916  002AB8  C02B  F19D         	movff	?___flsub+1,powf@p_h+1
  4917  002ABC  C02C  F19E         	movff	?___flsub+2,powf@p_h+2
  4918  002AC0  C02D  F19F         	movff	?___flsub+3,powf@p_h+3
  4919  002AC4                     l3595:
  4920  002AC4  C164  F001         	movff	powf@p_l,___fladd@b
  4921  002AC8  C165  F002         	movff	powf@p_l+1,___fladd@b+1
  4922  002ACC  C166  F003         	movff	powf@p_l+2,___fladd@b+2
  4923  002AD0  C167  F004         	movff	powf@p_l+3,___fladd@b+3
  4924  002AD4  C19C  F005         	movff	powf@p_h,___fladd@a
  4925  002AD8  C19D  F006         	movff	powf@p_h+1,___fladd@a+1
  4926  002ADC  C19E  F007         	movff	powf@p_h+2,___fladd@a+2
  4927  002AE0  C19F  F008         	movff	powf@p_h+3,___fladd@a+3
  4928  002AE4  EC1C  F01B         	call	___fladd	;wreg free
  4929  002AE8  C001  F1B0         	movff	?___fladd,powf@t
  4930  002AEC  C002  F1B1         	movff	?___fladd+1,powf@t+1
  4931  002AF0  C003  F1B2         	movff	?___fladd+2,powf@t+2
  4932  002AF4  C004  F1B3         	movff	?___fladd+3,powf@t+3
  4933  002AF8  C1B0  F1B8         	movff	powf@t,powf@__xc8_float_word
  4934  002AFC  C1B1  F1B9         	movff	powf@t+1,powf@__xc8_float_word+1
  4935  002B00  C1B2  F1BA         	movff	powf@t+2,powf@__xc8_float_word+2
  4936  002B04  C1B3  F1BB         	movff	powf@t+3,powf@__xc8_float_word+3
  4937  002B08  C1B8  F190         	movff	powf@__xc8_float_word,powf@is
  4938  002B0C  C1B9  F191         	movff	powf@__xc8_float_word+1,powf@is+1
  4939  002B10  C1BA  F192         	movff	powf@__xc8_float_word+2,powf@is+2
  4940  002B14  C1BB  F193         	movff	powf@__xc8_float_word+3,powf@is+3
  4941  002B18  0E00               	movlw	0
  4942  002B1A  0101               	movlb	1	; () banked
  4943  002B1C  1590               	andwf	powf@is& (0+255),w,b
  4944  002B1E  6FB8               	movwf	powf@__xc8_float_word& (0+255),b
  4945  002B20  0E80               	movlw	128
  4946  002B22  1591               	andwf	(powf@is+1)& (0+255),w,b
  4947  002B24  6FB9               	movwf	(powf@__xc8_float_word+1)& (0+255),b
  4948  002B26  0EFF               	movlw	255
  4949  002B28  1592               	andwf	(powf@is+2)& (0+255),w,b
  4950  002B2A  6FBA               	movwf	(powf@__xc8_float_word+2)& (0+255),b
  4951  002B2C  0EFF               	movlw	255
  4952  002B2E  1593               	andwf	(powf@is+3)& (0+255),w,b
  4953  002B30  6FBB               	movwf	(powf@__xc8_float_word+3)& (0+255),b
  4954  002B32                     
  4955                           ; BSR set to: 1
  4956  002B32  C1B8  F1B0         	movff	powf@__xc8_float_word,powf@t
  4957  002B36  C1B9  F1B1         	movff	powf@__xc8_float_word+1,powf@t+1
  4958  002B3A  C1BA  F1B2         	movff	powf@__xc8_float_word+2,powf@t+2
  4959  002B3E  C1BB  F1B3         	movff	powf@__xc8_float_word+3,powf@t+3
  4960  002B42                     
  4961                           ; BSR set to: 1
  4962  002B42  C1B0  F011         	movff	powf@t,___flmul@b
  4963  002B46  C1B1  F012         	movff	powf@t+1,___flmul@b+1
  4964  002B4A  C1B2  F013         	movff	powf@t+2,___flmul@b+2
  4965  002B4E  C1B3  F014         	movff	powf@t+3,___flmul@b+3
  4966  002B52  0E00               	movlw	0
  4967  002B54  6E15               	movwf	___flmul@a^0,c
  4968  002B56  0E72               	movlw	114
  4969  002B58  6E16               	movwf	(___flmul@a+1)^0,c
  4970  002B5A  0E31               	movlw	49
  4971  002B5C  6E17               	movwf	(___flmul@a+2)^0,c
  4972  002B5E  0E3F               	movlw	63
  4973  002B60  6E18               	movwf	(___flmul@a+3)^0,c
  4974  002B62  ECBA  F01F         	call	___flmul	;wreg free
  4975  002B66  C011  F174         	movff	?___flmul,powf@u
  4976  002B6A  C012  F175         	movff	?___flmul+1,powf@u+1
  4977  002B6E  C013  F176         	movff	?___flmul+2,powf@u+2
  4978  002B72  C014  F177         	movff	?___flmul+3,powf@u+3
  4979  002B76  C19C  F02E         	movff	powf@p_h,___flsub@a
  4980  002B7A  C19D  F02F         	movff	powf@p_h+1,___flsub@a+1
  4981  002B7E  C19E  F030         	movff	powf@p_h+2,___flsub@a+2
  4982  002B82  C19F  F031         	movff	powf@p_h+3,___flsub@a+3
  4983  002B86  C1B0  F02A         	movff	powf@t,___flsub@b
  4984  002B8A  C1B1  F02B         	movff	powf@t+1,___flsub@b+1
  4985  002B8E  C1B2  F02C         	movff	powf@t+2,___flsub@b+2
  4986  002B92  C1B3  F02D         	movff	powf@t+3,___flsub@b+3
  4987  002B96  ECE8  F028         	call	___flsub	;wreg free
  4988  002B9A  C02A  F194         	movff	?___flsub,_powf$962
  4989  002B9E  C02B  F195         	movff	?___flsub+1,_powf$962+1
  4990  002BA2  C02C  F196         	movff	?___flsub+2,_powf$962+2
  4991  002BA6  C02D  F197         	movff	?___flsub+3,_powf$962+3
  4992  002BAA  0E18               	movlw	24
  4993  002BAC  6E15               	movwf	___flmul@a^0,c
  4994  002BAE  0E72               	movlw	114
  4995  002BB0  6E16               	movwf	(___flmul@a+1)^0,c
  4996  002BB2  0E31               	movlw	49
  4997  002BB4  6E17               	movwf	(___flmul@a+2)^0,c
  4998  002BB6  0E3F               	movlw	63
  4999  002BB8  6E18               	movwf	(___flmul@a+3)^0,c
  5000  002BBA  C194  F02E         	movff	_powf$962,___flsub@a
  5001  002BBE  C195  F02F         	movff	_powf$962+1,___flsub@a+1
  5002  002BC2  C196  F030         	movff	_powf$962+2,___flsub@a+2
  5003  002BC6  C197  F031         	movff	_powf$962+3,___flsub@a+3
  5004  002BCA  C164  F02A         	movff	powf@p_l,___flsub@b
  5005  002BCE  C165  F02B         	movff	powf@p_l+1,___flsub@b+1
  5006  002BD2  C166  F02C         	movff	powf@p_l+2,___flsub@b+2
  5007  002BD6  C167  F02D         	movff	powf@p_l+3,___flsub@b+3
  5008  002BDA  ECE8  F028         	call	___flsub	;wreg free
  5009  002BDE  C02A  F011         	movff	?___flsub,___flmul@b
  5010  002BE2  C02B  F012         	movff	?___flsub+1,___flmul@b+1
  5011  002BE6  C02C  F013         	movff	?___flsub+2,___flmul@b+2
  5012  002BEA  C02D  F014         	movff	?___flsub+3,___flmul@b+3
  5013  002BEE  ECBA  F01F         	call	___flmul	;wreg free
  5014  002BF2  C011  F114         	movff	?___flmul,_powf$972
  5015  002BF6  C012  F115         	movff	?___flmul+1,_powf$972+1
  5016  002BFA  C013  F116         	movff	?___flmul+2,_powf$972+2
  5017  002BFE  C014  F117         	movff	?___flmul+3,_powf$972+3
  5018  002C02  C114  F001         	movff	_powf$972,___fladd@b
  5019  002C06  C115  F002         	movff	_powf$972+1,___fladd@b+1
  5020  002C0A  C116  F003         	movff	_powf$972+2,___fladd@b+2
  5021  002C0E  C117  F004         	movff	_powf$972+3,___fladd@b+3
  5022  002C12  0E8C               	movlw	140
  5023  002C14  6E15               	movwf	___flmul@a^0,c
  5024  002C16  0EBE               	movlw	190
  5025  002C18  6E16               	movwf	(___flmul@a+1)^0,c
  5026  002C1A  0EBF               	movlw	191
  5027  002C1C  6E17               	movwf	(___flmul@a+2)^0,c
  5028  002C1E  0E35               	movlw	53
  5029  002C20  6E18               	movwf	(___flmul@a+3)^0,c
  5030  002C22  C1B0  F011         	movff	powf@t,___flmul@b
  5031  002C26  C1B1  F012         	movff	powf@t+1,___flmul@b+1
  5032  002C2A  C1B2  F013         	movff	powf@t+2,___flmul@b+2
  5033  002C2E  C1B3  F014         	movff	powf@t+3,___flmul@b+3
  5034  002C32  ECBA  F01F         	call	___flmul	;wreg free
  5035  002C36  C011  F005         	movff	?___flmul,___fladd@a
  5036  002C3A  C012  F006         	movff	?___flmul+1,___fladd@a+1
  5037  002C3E  C013  F007         	movff	?___flmul+2,___fladd@a+2
  5038  002C42  C014  F008         	movff	?___flmul+3,___fladd@a+3
  5039  002C46  EC1C  F01B         	call	___fladd	;wreg free
  5040  002C4A  C001  F178         	movff	?___fladd,powf@v
  5041  002C4E  C002  F179         	movff	?___fladd+1,powf@v+1
  5042  002C52  C003  F17A         	movff	?___fladd+2,powf@v+2
  5043  002C56  C004  F17B         	movff	?___fladd+3,powf@v+3
  5044  002C5A  C174  F001         	movff	powf@u,___fladd@b
  5045  002C5E  C175  F002         	movff	powf@u+1,___fladd@b+1
  5046  002C62  C176  F003         	movff	powf@u+2,___fladd@b+2
  5047  002C66  C177  F004         	movff	powf@u+3,___fladd@b+3
  5048  002C6A  C178  F005         	movff	powf@v,___fladd@a
  5049  002C6E  C179  F006         	movff	powf@v+1,___fladd@a+1
  5050  002C72  C17A  F007         	movff	powf@v+2,___fladd@a+2
  5051  002C76  C17B  F008         	movff	powf@v+3,___fladd@a+3
  5052  002C7A  EC1C  F01B         	call	___fladd	;wreg free
  5053  002C7E  C001  F1B4         	movff	?___fladd,powf@z
  5054  002C82  C002  F1B5         	movff	?___fladd+1,powf@z+1
  5055  002C86  C003  F1B6         	movff	?___fladd+2,powf@z+2
  5056  002C8A  C004  F1B7         	movff	?___fladd+3,powf@z+3
  5057  002C8E  C174  F02E         	movff	powf@u,___flsub@a
  5058  002C92  C175  F02F         	movff	powf@u+1,___flsub@a+1
  5059  002C96  C176  F030         	movff	powf@u+2,___flsub@a+2
  5060  002C9A  C177  F031         	movff	powf@u+3,___flsub@a+3
  5061  002C9E  C1B4  F02A         	movff	powf@z,___flsub@b
  5062  002CA2  C1B5  F02B         	movff	powf@z+1,___flsub@b+1
  5063  002CA6  C1B6  F02C         	movff	powf@z+2,___flsub@b+2
  5064  002CAA  C1B7  F02D         	movff	powf@z+3,___flsub@b+3
  5065  002CAE  ECE8  F028         	call	___flsub	;wreg free
  5066  002CB2  C02A  F194         	movff	?___flsub,_powf$962
  5067  002CB6  C02B  F195         	movff	?___flsub+1,_powf$962+1
  5068  002CBA  C02C  F196         	movff	?___flsub+2,_powf$962+2
  5069  002CBE  C02D  F197         	movff	?___flsub+3,_powf$962+3
  5070  002CC2  C178  F02A         	movff	powf@v,___flsub@b
  5071  002CC6  C179  F02B         	movff	powf@v+1,___flsub@b+1
  5072  002CCA  C17A  F02C         	movff	powf@v+2,___flsub@b+2
  5073  002CCE  C17B  F02D         	movff	powf@v+3,___flsub@b+3
  5074  002CD2  C194  F02E         	movff	_powf$962,___flsub@a
  5075  002CD6  C195  F02F         	movff	_powf$962+1,___flsub@a+1
  5076  002CDA  C196  F030         	movff	_powf$962+2,___flsub@a+2
  5077  002CDE  C197  F031         	movff	_powf$962+3,___flsub@a+3
  5078  002CE2  ECE8  F028         	call	___flsub	;wreg free
  5079  002CE6  C02A  F144         	movff	?___flsub,powf@w
  5080  002CEA  C02B  F145         	movff	?___flsub+1,powf@w+1
  5081  002CEE  C02C  F146         	movff	?___flsub+2,powf@w+2
  5082  002CF2  C02D  F147         	movff	?___flsub+3,powf@w+3
  5083  002CF6  C1B4  F011         	movff	powf@z,___flmul@b
  5084  002CFA  C1B5  F012         	movff	powf@z+1,___flmul@b+1
  5085  002CFE  C1B6  F013         	movff	powf@z+2,___flmul@b+2
  5086  002D02  C1B7  F014         	movff	powf@z+3,___flmul@b+3
  5087  002D06  C1B4  F015         	movff	powf@z,___flmul@a
  5088  002D0A  C1B5  F016         	movff	powf@z+1,___flmul@a+1
  5089  002D0E  C1B6  F017         	movff	powf@z+2,___flmul@a+2
  5090  002D12  C1B7  F018         	movff	powf@z+3,___flmul@a+3
  5091  002D16  ECBA  F01F         	call	___flmul	;wreg free
  5092  002D1A  C011  F1B0         	movff	?___flmul,powf@t
  5093  002D1E  C012  F1B1         	movff	?___flmul+1,powf@t+1
  5094  002D22  C013  F1B2         	movff	?___flmul+2,powf@t+2
  5095  002D26  C014  F1B3         	movff	?___flmul+3,powf@t+3
  5096  002D2A  0E0E               	movlw	14
  5097  002D2C  6E05               	movwf	___fladd@a^0,c
  5098  002D2E  0EEA               	movlw	234
  5099  002D30  6E06               	movwf	(___fladd@a+1)^0,c
  5100  002D32  0EDD               	movlw	221
  5101  002D34  6E07               	movwf	(___fladd@a+2)^0,c
  5102  002D36  0EB5               	movlw	181
  5103  002D38  6E08               	movwf	(___fladd@a+3)^0,c
  5104  002D3A  0E4C               	movlw	76
  5105  002D3C  6E15               	movwf	___flmul@a^0,c
  5106  002D3E  0EBB               	movlw	187
  5107  002D40  6E16               	movwf	(___flmul@a+1)^0,c
  5108  002D42  0E31               	movlw	49
  5109  002D44  6E17               	movwf	(___flmul@a+2)^0,c
  5110  002D46  0E33               	movlw	51
  5111  002D48  6E18               	movwf	(___flmul@a+3)^0,c
  5112  002D4A  C1B0  F011         	movff	powf@t,___flmul@b
  5113  002D4E  C1B1  F012         	movff	powf@t+1,___flmul@b+1
  5114  002D52  C1B2  F013         	movff	powf@t+2,___flmul@b+2
  5115  002D56  C1B3  F014         	movff	powf@t+3,___flmul@b+3
  5116  002D5A  ECBA  F01F         	call	___flmul	;wreg free
  5117  002D5E  C011  F001         	movff	?___flmul,___fladd@b
  5118  002D62  C012  F002         	movff	?___flmul+1,___fladd@b+1
  5119  002D66  C013  F003         	movff	?___flmul+2,___fladd@b+2
  5120  002D6A  C014  F004         	movff	?___flmul+3,___fladd@b+3
  5121  002D6E  EC1C  F01B         	call	___fladd	;wreg free
  5122  002D72  C001  F1A4         	movff	?___fladd,_powf$959
  5123  002D76  C002  F1A5         	movff	?___fladd+1,_powf$959+1
  5124  002D7A  C003  F1A6         	movff	?___fladd+2,_powf$959+2
  5125  002D7E  C004  F1A7         	movff	?___fladd+3,_powf$959+3
  5126  002D82  0E55               	movlw	85
  5127  002D84  6E05               	movwf	___fladd@a^0,c
  5128  002D86  0EB3               	movlw	179
  5129  002D88  6E06               	movwf	(___fladd@a+1)^0,c
  5130  002D8A  0E8A               	movlw	138
  5131  002D8C  6E07               	movwf	(___fladd@a+2)^0,c
  5132  002D8E  0E38               	movlw	56
  5133  002D90  6E08               	movwf	(___fladd@a+3)^0,c
  5134  002D92  C1B0  F015         	movff	powf@t,___flmul@a
  5135  002D96  C1B1  F016         	movff	powf@t+1,___flmul@a+1
  5136  002D9A  C1B2  F017         	movff	powf@t+2,___flmul@a+2
  5137  002D9E  C1B3  F018         	movff	powf@t+3,___flmul@a+3
  5138  002DA2  C1A4  F011         	movff	_powf$959,___flmul@b
  5139  002DA6  C1A5  F012         	movff	_powf$959+1,___flmul@b+1
  5140  002DAA  C1A6  F013         	movff	_powf$959+2,___flmul@b+2
  5141  002DAE  C1A7  F014         	movff	_powf$959+3,___flmul@b+3
  5142  002DB2  ECBA  F01F         	call	___flmul	;wreg free
  5143  002DB6  C011  F001         	movff	?___flmul,___fladd@b
  5144  002DBA  C012  F002         	movff	?___flmul+1,___fladd@b+1
  5145  002DBE  C013  F003         	movff	?___flmul+2,___fladd@b+2
  5146  002DC2  C014  F004         	movff	?___flmul+3,___fladd@b+3
  5147  002DC6  EC1C  F01B         	call	___fladd	;wreg free
  5148  002DCA  C001  F154         	movff	?___fladd,_powf$960
  5149  002DCE  C002  F155         	movff	?___fladd+1,_powf$960+1
  5150  002DD2  C003  F156         	movff	?___fladd+2,_powf$960+2
  5151  002DD6  C004  F157         	movff	?___fladd+3,_powf$960+3
  5152  002DDA  0E61               	movlw	97
  5153  002DDC  6E05               	movwf	___fladd@a^0,c
  5154  002DDE  0E0B               	movlw	11
  5155  002DE0  6E06               	movwf	(___fladd@a+1)^0,c
  5156  002DE2  0E36               	movlw	54
  5157  002DE4  6E07               	movwf	(___fladd@a+2)^0,c
  5158  002DE6  0EBB               	movlw	187
  5159  002DE8  6E08               	movwf	(___fladd@a+3)^0,c
  5160  002DEA  C1B0  F015         	movff	powf@t,___flmul@a
  5161  002DEE  C1B1  F016         	movff	powf@t+1,___flmul@a+1
  5162  002DF2  C1B2  F017         	movff	powf@t+2,___flmul@a+2
  5163  002DF6  C1B3  F018         	movff	powf@t+3,___flmul@a+3
  5164  002DFA  C154  F011         	movff	_powf$960,___flmul@b
  5165  002DFE  C155  F012         	movff	_powf$960+1,___flmul@b+1
  5166  002E02  C156  F013         	movff	_powf$960+2,___flmul@b+2
  5167  002E06  C157  F014         	movff	_powf$960+3,___flmul@b+3
  5168  002E0A  ECBA  F01F         	call	___flmul	;wreg free
  5169  002E0E  C011  F001         	movff	?___flmul,___fladd@b
  5170  002E12  C012  F002         	movff	?___flmul+1,___fladd@b+1
  5171  002E16  C013  F003         	movff	?___flmul+2,___fladd@b+2
  5172  002E1A  C014  F004         	movff	?___flmul+3,___fladd@b+3
  5173  002E1E  EC1C  F01B         	call	___fladd	;wreg free
  5174  002E22  C001  F148         	movff	?___fladd,_powf$961
  5175  002E26  C002  F149         	movff	?___fladd+1,_powf$961+1
  5176  002E2A  C003  F14A         	movff	?___fladd+2,_powf$961+2
  5177  002E2E  C004  F14B         	movff	?___fladd+3,_powf$961+3
  5178  002E32  0EAB               	movlw	171
  5179  002E34  6E05               	movwf	___fladd@a^0,c
  5180  002E36  0EAA               	movlw	170
  5181  002E38  6E06               	movwf	(___fladd@a+1)^0,c
  5182  002E3A  0E2A               	movlw	42
  5183  002E3C  6E07               	movwf	(___fladd@a+2)^0,c
  5184  002E3E  0E3E               	movlw	62
  5185  002E40  6E08               	movwf	(___fladd@a+3)^0,c
  5186  002E42  C1B0  F015         	movff	powf@t,___flmul@a
  5187  002E46  C1B1  F016         	movff	powf@t+1,___flmul@a+1
  5188  002E4A  C1B2  F017         	movff	powf@t+2,___flmul@a+2
  5189  002E4E  C1B3  F018         	movff	powf@t+3,___flmul@a+3
  5190  002E52  C148  F011         	movff	_powf$961,___flmul@b
  5191  002E56  C149  F012         	movff	_powf$961+1,___flmul@b+1
  5192  002E5A  C14A  F013         	movff	_powf$961+2,___flmul@b+2
  5193  002E5E  C14B  F014         	movff	_powf$961+3,___flmul@b+3
  5194  002E62  ECBA  F01F         	call	___flmul	;wreg free
  5195  002E66  C011  F001         	movff	?___flmul,___fladd@b
  5196  002E6A  C012  F002         	movff	?___flmul+1,___fladd@b+1
  5197  002E6E  C013  F003         	movff	?___flmul+2,___fladd@b+2
  5198  002E72  C014  F004         	movff	?___flmul+3,___fladd@b+3
  5199  002E76  EC1C  F01B         	call	___fladd	;wreg free
  5200  002E7A  C001  F138         	movff	?___fladd,_powf$963
  5201  002E7E  C002  F139         	movff	?___fladd+1,_powf$963+1
  5202  002E82  C003  F13A         	movff	?___fladd+2,_powf$963+2
  5203  002E86  C004  F13B         	movff	?___fladd+3,_powf$963+3
  5204  002E8A  C1B4  F02A         	movff	powf@z,___flsub@b
  5205  002E8E  C1B5  F02B         	movff	powf@z+1,___flsub@b+1
  5206  002E92  C1B6  F02C         	movff	powf@z+2,___flsub@b+2
  5207  002E96  C1B7  F02D         	movff	powf@z+3,___flsub@b+3
  5208  002E9A  C1B0  F015         	movff	powf@t,___flmul@a
  5209  002E9E  C1B1  F016         	movff	powf@t+1,___flmul@a+1
  5210  002EA2  C1B2  F017         	movff	powf@t+2,___flmul@a+2
  5211  002EA6  C1B3  F018         	movff	powf@t+3,___flmul@a+3
  5212  002EAA  C138  F011         	movff	_powf$963,___flmul@b
  5213  002EAE  C139  F012         	movff	_powf$963+1,___flmul@b+1
  5214  002EB2  C13A  F013         	movff	_powf$963+2,___flmul@b+2
  5215  002EB6  C13B  F014         	movff	_powf$963+3,___flmul@b+3
  5216  002EBA  ECBA  F01F         	call	___flmul	;wreg free
  5217  002EBE  C011  F02E         	movff	?___flmul,___flsub@a
  5218  002EC2  C012  F02F         	movff	?___flmul+1,___flsub@a+1
  5219  002EC6  C013  F030         	movff	?___flmul+2,___flsub@a+2
  5220  002ECA  C014  F031         	movff	?___flmul+3,___flsub@a+3
  5221  002ECE  ECE8  F028         	call	___flsub	;wreg free
  5222  002ED2  C02A  F180         	movff	?___flsub,powf@t1
  5223  002ED6  C02B  F181         	movff	?___flsub+1,powf@t1+1
  5224  002EDA  C02C  F182         	movff	?___flsub+2,powf@t1+2
  5225  002EDE  C02D  F183         	movff	?___flsub+3,powf@t1+3
  5226  002EE2  0E00               	movlw	0
  5227  002EE4  6E05               	movwf	___fladd@a^0,c
  5228  002EE6  0E00               	movlw	0
  5229  002EE8  6E06               	movwf	(___fladd@a+1)^0,c
  5230  002EEA  0E00               	movlw	0
  5231  002EEC  6E07               	movwf	(___fladd@a+2)^0,c
  5232  002EEE  0EC0               	movlw	192
  5233  002EF0  6E08               	movwf	(___fladd@a+3)^0,c
  5234  002EF2  C180  F001         	movff	powf@t1,___fladd@b
  5235  002EF6  C181  F002         	movff	powf@t1+1,___fladd@b+1
  5236  002EFA  C182  F003         	movff	powf@t1+2,___fladd@b+2
  5237  002EFE  C183  F004         	movff	powf@t1+3,___fladd@b+3
  5238  002F02  EC1C  F01B         	call	___fladd	;wreg free
  5239  002F06  C001  F036         	movff	?___fladd,___fldiv@a
  5240  002F0A  C002  F037         	movff	?___fladd+1,___fldiv@a+1
  5241  002F0E  C003  F038         	movff	?___fladd+2,___fldiv@a+2
  5242  002F12  C004  F039         	movff	?___fladd+3,___fldiv@a+3
  5243  002F16  C180  F015         	movff	powf@t1,___flmul@a
  5244  002F1A  C181  F016         	movff	powf@t1+1,___flmul@a+1
  5245  002F1E  C182  F017         	movff	powf@t1+2,___flmul@a+2
  5246  002F22  C183  F018         	movff	powf@t1+3,___flmul@a+3
  5247  002F26  C1B4  F011         	movff	powf@z,___flmul@b
  5248  002F2A  C1B5  F012         	movff	powf@z+1,___flmul@b+1
  5249  002F2E  C1B6  F013         	movff	powf@z+2,___flmul@b+2
  5250  002F32  C1B7  F014         	movff	powf@z+3,___flmul@b+3
  5251  002F36  ECBA  F01F         	call	___flmul	;wreg free
  5252  002F3A  C011  F032         	movff	?___flmul,___fldiv@b
  5253  002F3E  C012  F033         	movff	?___flmul+1,___fldiv@b+1
  5254  002F42  C013  F034         	movff	?___flmul+2,___fldiv@b+2
  5255  002F46  C014  F035         	movff	?___flmul+3,___fldiv@b+3
  5256  002F4A  ECCF  F021         	call	___fldiv	;wreg free
  5257  002F4E  C032  F13C         	movff	?___fldiv,_powf$967
  5258  002F52  C033  F13D         	movff	?___fldiv+1,_powf$967+1
  5259  002F56  C034  F13E         	movff	?___fldiv+2,_powf$967+2
  5260  002F5A  C035  F13F         	movff	?___fldiv+3,_powf$967+3
  5261  002F5E  C144  F005         	movff	powf@w,___fladd@a
  5262  002F62  C145  F006         	movff	powf@w+1,___fladd@a+1
  5263  002F66  C146  F007         	movff	powf@w+2,___fladd@a+2
  5264  002F6A  C147  F008         	movff	powf@w+3,___fladd@a+3
  5265  002F6E  C144  F015         	movff	powf@w,___flmul@a
  5266  002F72  C145  F016         	movff	powf@w+1,___flmul@a+1
  5267  002F76  C146  F017         	movff	powf@w+2,___flmul@a+2
  5268  002F7A  C147  F018         	movff	powf@w+3,___flmul@a+3
  5269  002F7E  C1B4  F011         	movff	powf@z,___flmul@b
  5270  002F82  C1B5  F012         	movff	powf@z+1,___flmul@b+1
  5271  002F86  C1B6  F013         	movff	powf@z+2,___flmul@b+2
  5272  002F8A  C1B7  F014         	movff	powf@z+3,___flmul@b+3
  5273  002F8E  ECBA  F01F         	call	___flmul	;wreg free
  5274  002F92  C011  F001         	movff	?___flmul,___fladd@b
  5275  002F96  C012  F002         	movff	?___flmul+1,___fladd@b+1
  5276  002F9A  C013  F003         	movff	?___flmul+2,___fladd@b+2
  5277  002F9E  C014  F004         	movff	?___flmul+3,___fladd@b+3
  5278  002FA2  EC1C  F01B         	call	___fladd	;wreg free
  5279  002FA6  C001  F118         	movff	?___fladd,_powf$973
  5280  002FAA  C002  F119         	movff	?___fladd+1,_powf$973+1
  5281  002FAE  C003  F11A         	movff	?___fladd+2,_powf$973+2
  5282  002FB2  C004  F11B         	movff	?___fladd+3,_powf$973+3
  5283  002FB6  C13C  F02A         	movff	_powf$967,___flsub@b
  5284  002FBA  C13D  F02B         	movff	_powf$967+1,___flsub@b+1
  5285  002FBE  C13E  F02C         	movff	_powf$967+2,___flsub@b+2
  5286  002FC2  C13F  F02D         	movff	_powf$967+3,___flsub@b+3
  5287  002FC6  C118  F02E         	movff	_powf$973,___flsub@a
  5288  002FCA  C119  F02F         	movff	_powf$973+1,___flsub@a+1
  5289  002FCE  C11A  F030         	movff	_powf$973+2,___flsub@a+2
  5290  002FD2  C11B  F031         	movff	_powf$973+3,___flsub@a+3
  5291  002FD6  ECE8  F028         	call	___flsub	;wreg free
  5292  002FDA  C02A  F14C         	movff	?___flsub,powf@r
  5293  002FDE  C02B  F14D         	movff	?___flsub+1,powf@r+1
  5294  002FE2  C02C  F14E         	movff	?___flsub+2,powf@r+2
  5295  002FE6  C02D  F14F         	movff	?___flsub+3,powf@r+3
  5296  002FEA  C1B4  F02E         	movff	powf@z,___flsub@a
  5297  002FEE  C1B5  F02F         	movff	powf@z+1,___flsub@a+1
  5298  002FF2  C1B6  F030         	movff	powf@z+2,___flsub@a+2
  5299  002FF6  C1B7  F031         	movff	powf@z+3,___flsub@a+3
  5300  002FFA  C14C  F02A         	movff	powf@r,___flsub@b
  5301  002FFE  C14D  F02B         	movff	powf@r+1,___flsub@b+1
  5302  003002  C14E  F02C         	movff	powf@r+2,___flsub@b+2
  5303  003006  C14F  F02D         	movff	powf@r+3,___flsub@b+3
  5304  00300A  ECE8  F028         	call	___flsub	;wreg free
  5305  00300E  C02A  F194         	movff	?___flsub,_powf$962
  5306  003012  C02B  F195         	movff	?___flsub+1,_powf$962+1
  5307  003016  C02C  F196         	movff	?___flsub+2,_powf$962+2
  5308  00301A  C02D  F197         	movff	?___flsub+3,_powf$962+3
  5309  00301E  0E00               	movlw	0
  5310  003020  6E2A               	movwf	___flsub@b^0,c
  5311  003022  0E00               	movlw	0
  5312  003024  6E2B               	movwf	(___flsub@b+1)^0,c
  5313  003026  0E80               	movlw	128
  5314  003028  6E2C               	movwf	(___flsub@b+2)^0,c
  5315  00302A  0E3F               	movlw	63
  5316  00302C  6E2D               	movwf	(___flsub@b+3)^0,c
  5317  00302E  C194  F02E         	movff	_powf$962,___flsub@a
  5318  003032  C195  F02F         	movff	_powf$962+1,___flsub@a+1
  5319  003036  C196  F030         	movff	_powf$962+2,___flsub@a+2
  5320  00303A  C197  F031         	movff	_powf$962+3,___flsub@a+3
  5321  00303E  ECE8  F028         	call	___flsub	;wreg free
  5322  003042  C02A  F1B4         	movff	?___flsub,powf@z
  5323  003046  C02B  F1B5         	movff	?___flsub+1,powf@z+1
  5324  00304A  C02C  F1B6         	movff	?___flsub+2,powf@z+2
  5325  00304E  C02D  F1B7         	movff	?___flsub+3,powf@z+3
  5326  003052  C1B4  F1B8         	movff	powf@z,powf@__xc8_float_word
  5327  003056  C1B5  F1B9         	movff	powf@z+1,powf@__xc8_float_word+1
  5328  00305A  C1B6  F1BA         	movff	powf@z+2,powf@__xc8_float_word+2
  5329  00305E  C1B7  F1BB         	movff	powf@z+3,powf@__xc8_float_word+3
  5330  003062  C1B8  F1AC         	movff	powf@__xc8_float_word,powf@j
  5331  003066  C1B9  F1AD         	movff	powf@__xc8_float_word+1,powf@j+1
  5332  00306A  C1BA  F1AE         	movff	powf@__xc8_float_word+2,powf@j+2
  5333  00306E  C1BB  F1AF         	movff	powf@__xc8_float_word+3,powf@j+3
  5334  003072  C17C  F04B         	movff	powf@n,??_powf
  5335  003076  C17D  F04C         	movff	powf@n+1,??_powf+1
  5336  00307A  C17E  F04D         	movff	powf@n+2,??_powf+2
  5337  00307E  C17F  F04E         	movff	powf@n+3,??_powf+3
  5338  003082  0E17               	movlw	23
  5339  003084                     u3895:
  5340  003084  90D8               	bcf	status,0,c
  5341  003086  364B               	rlcf	??_powf^0,f,c
  5342  003088  364C               	rlcf	(??_powf+1)^0,f,c
  5343  00308A  364D               	rlcf	(??_powf+2)^0,f,c
  5344  00308C  364E               	rlcf	(??_powf+3)^0,f,c
  5345  00308E  2EE8               	decfsz	wreg,f,c
  5346  003090  EF42  F018         	goto	u3895
  5347  003094  504B               	movf	??_powf^0,w,c
  5348  003096  0101               	movlb	1	; () banked
  5349  003098  27AC               	addwf	powf@j& (0+255),f,b
  5350  00309A  504C               	movf	(??_powf+1)^0,w,c
  5351  00309C  23AD               	addwfc	(powf@j+1)& (0+255),f,b
  5352  00309E  504D               	movf	(??_powf+2)^0,w,c
  5353  0030A0  23AE               	addwfc	(powf@j+2)& (0+255),f,b
  5354  0030A2  504E               	movf	(??_powf+3)^0,w,c
  5355  0030A4  23AF               	addwfc	(powf@j+3)& (0+255),f,b
  5356  0030A6                     
  5357                           ; BSR set to: 1
  5358  0030A6  0E17               	movlw	23
  5359  0030A8  6E4B               	movwf	??_powf^0,c
  5360  0030AA  C1AC  F04C         	movff	powf@j,??_powf+1
  5361  0030AE  C1AD  F04D         	movff	powf@j+1,??_powf+2
  5362  0030B2  C1AE  F04E         	movff	powf@j+2,??_powf+3
  5363  0030B6  C1AF  F04F         	movff	powf@j+3,??_powf+4
  5364  0030BA                     u3905:
  5365  0030BA  664B               	tstfsz	??_powf^0,c
  5366  0030BC  EF62  F018         	goto	u3906
  5367  0030C0  EF6A  F018         	goto	u3907
  5368  0030C4                     u3906:
  5369  0030C4  344F               	rlcf	(??_powf+4)^0,w,c
  5370  0030C6  324F               	rrcf	(??_powf+4)^0,f,c
  5371  0030C8  324E               	rrcf	(??_powf+3)^0,f,c
  5372  0030CA  324D               	rrcf	(??_powf+2)^0,f,c
  5373  0030CC  324C               	rrcf	(??_powf+1)^0,f,c
  5374  0030CE  2E4B               	decfsz	??_powf^0,f,c
  5375  0030D0  EF5D  F018         	goto	u3905
  5376  0030D4                     u3907:
  5377  0030D4  BE4F               	btfsc	(??_powf+4)^0,7,c
  5378  0030D6  EF79  F018         	goto	u3910
  5379  0030DA  504F               	movf	(??_powf+4)^0,w,c
  5380  0030DC  104E               	iorwf	(??_powf+3)^0,w,c
  5381  0030DE  104D               	iorwf	(??_powf+2)^0,w,c
  5382  0030E0  E106               	bnz	u3911
  5383  0030E2  044C               	decf	(??_powf+1)^0,w,c
  5384  0030E4  B0D8               	btfsc	status,0,c
  5385  0030E6  EF77  F018         	goto	u3911
  5386  0030EA  EF79  F018         	goto	u3910
  5387  0030EE                     u3911:
  5388  0030EE  EF91  F018         	goto	l978
  5389  0030F2                     u3910:
  5390  0030F2  C1B4  F02A         	movff	powf@z,scalbnf@x
  5391  0030F6  C1B5  F02B         	movff	powf@z+1,scalbnf@x+1
  5392  0030FA  C1B6  F02C         	movff	powf@z+2,scalbnf@x+2
  5393  0030FE  C1B7  F02D         	movff	powf@z+3,scalbnf@x+3
  5394  003102  C17C  F02E         	movff	powf@n,scalbnf@n
  5395  003106  C17D  F02F         	movff	powf@n+1,scalbnf@n+1
  5396  00310A  ECEE  F024         	call	_scalbnf	;wreg free
  5397  00310E  C02A  F1B4         	movff	?_scalbnf,powf@z
  5398  003112  C02B  F1B5         	movff	?_scalbnf+1,powf@z+1
  5399  003116  C02C  F1B6         	movff	?_scalbnf+2,powf@z+2
  5400  00311A  C02D  F1B7         	movff	?_scalbnf+3,powf@z+3
  5401  00311E  EFA1  F018         	goto	l3651
  5402  003122                     l978:
  5403  003122  C1AC  F1B8         	movff	powf@j,powf@__xc8_float_word
  5404  003126  C1AD  F1B9         	movff	powf@j+1,powf@__xc8_float_word+1
  5405  00312A  C1AE  F1BA         	movff	powf@j+2,powf@__xc8_float_word+2
  5406  00312E  C1AF  F1BB         	movff	powf@j+3,powf@__xc8_float_word+3
  5407  003132  C1B8  F1B4         	movff	powf@__xc8_float_word,powf@z
  5408  003136  C1B9  F1B5         	movff	powf@__xc8_float_word+1,powf@z+1
  5409  00313A  C1BA  F1B6         	movff	powf@__xc8_float_word+2,powf@z+2
  5410  00313E  C1BB  F1B7         	movff	powf@__xc8_float_word+3,powf@z+3
  5411  003142                     l3651:
  5412  003142  C188  F011         	movff	powf@sn,___flmul@b
  5413  003146  C189  F012         	movff	powf@sn+1,___flmul@b+1
  5414  00314A  C18A  F013         	movff	powf@sn+2,___flmul@b+2
  5415  00314E  C18B  F014         	movff	powf@sn+3,___flmul@b+3
  5416  003152  C1B4  F015         	movff	powf@z,___flmul@a
  5417  003156  C1B5  F016         	movff	powf@z+1,___flmul@a+1
  5418  00315A  C1B6  F017         	movff	powf@z+2,___flmul@a+2
  5419  00315E  C1B7  F018         	movff	powf@z+3,___flmul@a+3
  5420  003162  ECBA  F01F         	call	___flmul	;wreg free
  5421  003166  C011  F084         	movff	?___flmul,?_powf
  5422  00316A  C012  F085         	movff	?___flmul+1,?_powf+1
  5423  00316E  C013  F086         	movff	?___flmul+2,?_powf+2
  5424  003172  C014  F087         	movff	?___flmul+3,?_powf+3
  5425  003176                     l866:
  5426  003176  0012               	return		;funcret
  5427  003178                     __end_of_powf:
  5428                           	callstack 0
  5429                           
  5430 ;; *************** function _sqrtf *****************
  5431 ;; Defined at:
  5432 ;;		line 22 in file "C:\Program Files\Microchip\xc8\v2.36\pic\sources\c99\common\sqrtf.c"
  5433 ;; Parameters:    Size  Location     Type
  5434 ;;  x               4   61[COMRAM] float 
  5435 ;; Auto vars:     Size  Location     Type
  5436 ;;  ix              4   32[BANK0 ] long 
  5437 ;;  r               4   28[BANK0 ] unsigned long 
  5438 ;;  m               4   24[BANK0 ] long 
  5439 ;;  z               4   20[BANK0 ] float 
  5440 ;;  t               4   16[BANK0 ] long 
  5441 ;;  q               4   12[BANK0 ] long 
  5442 ;;  __xc8_float_    4    8[BANK0 ] struct .
  5443 ;;  i               4    4[BANK0 ] long 
  5444 ;;  s               4    0[BANK0 ] long 
  5445 ;;  sign            4    0        long 
  5446 ;; Return value:  Size  Location     Type
  5447 ;;                  4   61[COMRAM] float 
  5448 ;; Registers used:
  5449 ;;		wreg, status,2, status,0, prodl, prodh, cstack
  5450 ;; Tracked objects:
  5451 ;;		On entry : 0/0
  5452 ;;		On exit  : 0/0
  5453 ;;		Unchanged: 0/0
  5454 ;; Data sizes:     COMRAM   BANK0   BANK1   BANK2   BANK3   BANK4   BANK5   BANK6   BANK7
  5455 ;;      Params:         4       0       0       0       0       0       0       0       0
  5456 ;;      Locals:         0      36       0       0       0       0       0       0       0
  5457 ;;      Temps:          5       0       0       0       0       0       0       0       0
  5458 ;;      Totals:         9      36       0       0       0       0       0       0       0
  5459 ;;Total ram usage:       45 bytes
  5460 ;; Hardware stack levels used: 1
  5461 ;; Hardware stack levels required when called: 1
  5462 ;; This function calls:
  5463 ;;		___fladd
  5464 ;;		___flge
  5465 ;;		___flmul
  5466 ;;		_nanf
  5467 ;; This function is called by:
  5468 ;;		_powf
  5469 ;; This function uses a non-reentrant model
  5470 ;;
  5471                           
  5472                           	psect	text3
  5473  003178                     __ptext3:
  5474                           	callstack 0
  5475  003178                     _sqrtf:
  5476                           	callstack 27
  5477  003178  C03E  F068         	movff	sqrtf@x,sqrtf@__xc8_float_word
  5478  00317C  C03F  F069         	movff	sqrtf@x+1,sqrtf@__xc8_float_word+1
  5479  003180  C040  F06A         	movff	sqrtf@x+2,sqrtf@__xc8_float_word+2
  5480  003184  C041  F06B         	movff	sqrtf@x+3,sqrtf@__xc8_float_word+3
  5481  003188  C068  F080         	movff	sqrtf@__xc8_float_word,sqrtf@ix
  5482  00318C  C069  F081         	movff	sqrtf@__xc8_float_word+1,sqrtf@ix+1
  5483  003190  C06A  F082         	movff	sqrtf@__xc8_float_word+2,sqrtf@ix+2
  5484  003194  C06B  F083         	movff	sqrtf@__xc8_float_word+3,sqrtf@ix+3
  5485  003198  0E00               	movlw	0
  5486  00319A  0100               	movlb	0	; () banked
  5487  00319C  1580               	andwf	sqrtf@ix& (0+255),w,b
  5488  00319E  6E42               	movwf	??_sqrtf^0,c
  5489  0031A0  0E00               	movlw	0
  5490  0031A2  1581               	andwf	(sqrtf@ix+1)& (0+255),w,b
  5491  0031A4  6E43               	movwf	(??_sqrtf+1)^0,c
  5492  0031A6  0E80               	movlw	128
  5493  0031A8  1582               	andwf	(sqrtf@ix+2)& (0+255),w,b
  5494  0031AA  6E44               	movwf	(??_sqrtf+2)^0,c
  5495  0031AC  0E7F               	movlw	127
  5496  0031AE  1583               	andwf	(sqrtf@ix+3)& (0+255),w,b
  5497  0031B0  6E45               	movwf	(??_sqrtf+3)^0,c
  5498  0031B2  0E80               	movlw	128
  5499  0031B4  1844               	xorwf	(??_sqrtf+2)^0,w,c
  5500  0031B6  E109               	bnz	u3141
  5501  0031B8  0E7F               	movlw	127
  5502  0031BA  1845               	xorwf	(??_sqrtf+3)^0,w,c
  5503  0031BC  1042               	iorwf	??_sqrtf^0,w,c
  5504  0031BE  1043               	iorwf	(??_sqrtf+1)^0,w,c
  5505  0031C0  A4D8               	btfss	status,2,c
  5506  0031C2  EFE5  F018         	goto	u3141
  5507  0031C6  EFE7  F018         	goto	u3140
  5508  0031CA                     u3141:
  5509  0031CA  EF15  F019         	goto	l3089
  5510  0031CE                     u3140:
  5511  0031CE                     
  5512                           ; BSR set to: 0
  5513  0031CE  C03E  F015         	movff	sqrtf@x,___flmul@a
  5514  0031D2  C03F  F016         	movff	sqrtf@x+1,___flmul@a+1
  5515  0031D6  C040  F017         	movff	sqrtf@x+2,___flmul@a+2
  5516  0031DA  C041  F018         	movff	sqrtf@x+3,___flmul@a+3
  5517  0031DE  C03E  F011         	movff	sqrtf@x,___flmul@b
  5518  0031E2  C03F  F012         	movff	sqrtf@x+1,___flmul@b+1
  5519  0031E6  C040  F013         	movff	sqrtf@x+2,___flmul@b+2
  5520  0031EA  C041  F014         	movff	sqrtf@x+3,___flmul@b+3
  5521  0031EE  ECBA  F01F         	call	___flmul	;wreg free
  5522  0031F2  C011  F001         	movff	?___flmul,___fladd@b
  5523  0031F6  C012  F002         	movff	?___flmul+1,___fladd@b+1
  5524  0031FA  C013  F003         	movff	?___flmul+2,___fladd@b+2
  5525  0031FE  C014  F004         	movff	?___flmul+3,___fladd@b+3
  5526  003202  C03E  F005         	movff	sqrtf@x,___fladd@a
  5527  003206  C03F  F006         	movff	sqrtf@x+1,___fladd@a+1
  5528  00320A  C040  F007         	movff	sqrtf@x+2,___fladd@a+2
  5529  00320E  C041  F008         	movff	sqrtf@x+3,___fladd@a+3
  5530  003212  EC1C  F01B         	call	___fladd	;wreg free
  5531  003216  C001  F03E         	movff	?___fladd,?_sqrtf
  5532  00321A  C002  F03F         	movff	?___fladd+1,?_sqrtf+1
  5533  00321E  C003  F040         	movff	?___fladd+2,?_sqrtf+2
  5534  003222  C004  F041         	movff	?___fladd+3,?_sqrtf+3
  5535  003226  EF1B  F01B         	goto	l1008
  5536  00322A                     l3089:
  5537                           
  5538                           ; BSR set to: 0
  5539  00322A  BF83               	btfsc	(sqrtf@ix+3)& (0+255),7,b
  5540  00322C  EF24  F019         	goto	u3150
  5541  003230  5183               	movf	(sqrtf@ix+3)& (0+255),w,b
  5542  003232  1182               	iorwf	(sqrtf@ix+2)& (0+255),w,b
  5543  003234  1181               	iorwf	(sqrtf@ix+1)& (0+255),w,b
  5544  003236  E106               	bnz	u3151
  5545  003238  0580               	decf	sqrtf@ix& (0+255),w,b
  5546  00323A  B0D8               	btfsc	status,0,c
  5547  00323C  EF22  F019         	goto	u3151
  5548  003240  EF24  F019         	goto	u3150
  5549  003244                     u3151:
  5550  003244  EF60  F019         	goto	l3103
  5551  003248                     u3150:
  5552  003248                     
  5553                           ; BSR set to: 0
  5554  003248  0EFF               	movlw	255
  5555  00324A  1580               	andwf	sqrtf@ix& (0+255),w,b
  5556  00324C  6E42               	movwf	??_sqrtf^0,c
  5557  00324E  0EFF               	movlw	255
  5558  003250  1581               	andwf	(sqrtf@ix+1)& (0+255),w,b
  5559  003252  6E43               	movwf	(??_sqrtf+1)^0,c
  5560  003254  0EFF               	movlw	255
  5561  003256  1582               	andwf	(sqrtf@ix+2)& (0+255),w,b
  5562  003258  6E44               	movwf	(??_sqrtf+2)^0,c
  5563  00325A  0E7F               	movlw	127
  5564  00325C  1583               	andwf	(sqrtf@ix+3)& (0+255),w,b
  5565  00325E  6E45               	movwf	(??_sqrtf+3)^0,c
  5566  003260  5042               	movf	??_sqrtf^0,w,c
  5567  003262  1043               	iorwf	(??_sqrtf+1)^0,w,c
  5568  003264  1044               	iorwf	(??_sqrtf+2)^0,w,c
  5569  003266  1045               	iorwf	(??_sqrtf+3)^0,w,c
  5570  003268  A4D8               	btfss	status,2,c
  5571  00326A  EF39  F019         	goto	u3161
  5572  00326E  EF3B  F019         	goto	u3160
  5573  003272                     u3161:
  5574  003272  EF45  F019         	goto	l3095
  5575  003276                     u3160:
  5576  003276                     
  5577                           ; BSR set to: 0
  5578  003276  C03E  F03E         	movff	sqrtf@x,?_sqrtf
  5579  00327A  C03F  F03F         	movff	sqrtf@x+1,?_sqrtf+1
  5580  00327E  C040  F040         	movff	sqrtf@x+2,?_sqrtf+2
  5581  003282  C041  F041         	movff	sqrtf@x+3,?_sqrtf+3
  5582  003286  EF1B  F01B         	goto	l1008
  5583  00328A                     l3095:
  5584                           
  5585                           ; BSR set to: 0
  5586  00328A  BF83               	btfsc	(sqrtf@ix+3)& (0+255),7,b
  5587  00328C  EF4C  F019         	goto	u3170
  5588  003290  EF4A  F019         	goto	u3171
  5589  003294                     u3171:
  5590  003294  EF60  F019         	goto	l3103
  5591  003298                     u3170:
  5592  003298                     
  5593                           ; BSR set to: 0
  5594  003298  0E00               	movlw	0
  5595  00329A  6FAB               	movwf	(_errno+1)& (0+255),b
  5596  00329C  0E21               	movlw	33
  5597  00329E  6FAA               	movwf	_errno& (0+255),b
  5598  0032A0                     
  5599                           ; BSR set to: 0
  5600  0032A0  0E7D               	movlw	low STR_1
  5601  0032A2  6E01               	movwf	nanf@s^0,c
  5602  0032A4  0E08               	movlw	high STR_1
  5603  0032A6  6E02               	movwf	(nanf@s+1)^0,c
  5604  0032A8  EC41  F029         	call	_nanf	;wreg free
  5605  0032AC  C001  F03E         	movff	?_nanf,?_sqrtf
  5606  0032B0  C002  F03F         	movff	?_nanf+1,?_sqrtf+1
  5607  0032B4  C003  F040         	movff	?_nanf+2,?_sqrtf+2
  5608  0032B8  C004  F041         	movff	?_nanf+3,?_sqrtf+3
  5609  0032BC  EF1B  F01B         	goto	l1008
  5610  0032C0                     l3103:
  5611                           
  5612                           ; BSR set to: 0
  5613  0032C0  0E17               	movlw	23
  5614  0032C2  6E42               	movwf	??_sqrtf^0,c
  5615  0032C4  C080  F043         	movff	sqrtf@ix,??_sqrtf+1
  5616  0032C8  C081  F044         	movff	sqrtf@ix+1,??_sqrtf+2
  5617  0032CC  C082  F045         	movff	sqrtf@ix+2,??_sqrtf+3
  5618  0032D0  C083  F046         	movff	sqrtf@ix+3,??_sqrtf+4
  5619  0032D4                     u3185:
  5620  0032D4  6642               	tstfsz	??_sqrtf^0,c
  5621  0032D6  EF6F  F019         	goto	u3186
  5622  0032DA  EF77  F019         	goto	u3187
  5623  0032DE                     u3186:
  5624  0032DE  3446               	rlcf	(??_sqrtf+4)^0,w,c
  5625  0032E0  3246               	rrcf	(??_sqrtf+4)^0,f,c
  5626  0032E2  3245               	rrcf	(??_sqrtf+3)^0,f,c
  5627  0032E4  3244               	rrcf	(??_sqrtf+2)^0,f,c
  5628  0032E6  3243               	rrcf	(??_sqrtf+1)^0,f,c
  5629  0032E8  2E42               	decfsz	??_sqrtf^0,f,c
  5630  0032EA  EF6A  F019         	goto	u3185
  5631  0032EE                     u3187:
  5632  0032EE  C043  F078         	movff	??_sqrtf+1,sqrtf@m
  5633  0032F2  C044  F079         	movff	??_sqrtf+2,sqrtf@m+1
  5634  0032F6  C045  F07A         	movff	??_sqrtf+3,sqrtf@m+2
  5635  0032FA  C046  F07B         	movff	??_sqrtf+4,sqrtf@m+3
  5636  0032FE  0100               	movlb	0	; () banked
  5637  003300  5178               	movf	sqrtf@m& (0+255),w,b
  5638  003302  1179               	iorwf	(sqrtf@m+1)& (0+255),w,b
  5639  003304  117A               	iorwf	(sqrtf@m+2)& (0+255),w,b
  5640  003306  117B               	iorwf	(sqrtf@m+3)& (0+255),w,b
  5641  003308  A4D8               	btfss	status,2,c
  5642  00330A  EF89  F019         	goto	u3191
  5643  00330E  EF8B  F019         	goto	u3190
  5644  003312                     u3191:
  5645  003312  EFBB  F019         	goto	l1012
  5646  003316                     u3190:
  5647  003316                     
  5648                           ; BSR set to: 0
  5649  003316  0E00               	movlw	0
  5650  003318  6F64               	movwf	sqrtf@i& (0+255),b
  5651  00331A  0E00               	movlw	0
  5652  00331C  6F65               	movwf	(sqrtf@i+1)& (0+255),b
  5653  00331E  0E00               	movlw	0
  5654  003320  6F66               	movwf	(sqrtf@i+2)& (0+255),b
  5655  003322  0E00               	movlw	0
  5656  003324  6F67               	movwf	(sqrtf@i+3)& (0+255),b
  5657  003326  EFA0  F019         	goto	l3111
  5658  00332A                     l3107:
  5659                           
  5660                           ; BSR set to: 0
  5661  00332A  90D8               	bcf	status,0,c
  5662  00332C  3780               	rlcf	sqrtf@ix& (0+255),f,b
  5663  00332E  3781               	rlcf	(sqrtf@ix+1)& (0+255),f,b
  5664  003330  3782               	rlcf	(sqrtf@ix+2)& (0+255),f,b
  5665  003332  3783               	rlcf	(sqrtf@ix+3)& (0+255),f,b
  5666  003334                     
  5667                           ; BSR set to: 0
  5668  003334  0E01               	movlw	1
  5669  003336  2764               	addwf	sqrtf@i& (0+255),f,b
  5670  003338  0E00               	movlw	0
  5671  00333A  2365               	addwfc	(sqrtf@i+1)& (0+255),f,b
  5672  00333C  2366               	addwfc	(sqrtf@i+2)& (0+255),f,b
  5673  00333E  2367               	addwfc	(sqrtf@i+3)& (0+255),f,b
  5674  003340                     l3111:
  5675                           
  5676                           ; BSR set to: 0
  5677  003340  AF82               	btfss	(sqrtf@ix+2)& (0+255),7,b
  5678  003342  EFA5  F019         	goto	u3201
  5679  003346  EFA7  F019         	goto	u3200
  5680  00334A                     u3201:
  5681  00334A  EF95  F019         	goto	l3107
  5682  00334E                     u3200:
  5683  00334E                     
  5684                           ; BSR set to: 0
  5685  00334E  0EFF               	movlw	255
  5686  003350  2564               	addwf	sqrtf@i& (0+255),w,b
  5687  003352  6E42               	movwf	??_sqrtf^0,c
  5688  003354  0EFF               	movlw	255
  5689  003356  2165               	addwfc	(sqrtf@i+1)& (0+255),w,b
  5690  003358  6E43               	movwf	(??_sqrtf+1)^0,c
  5691  00335A  0EFF               	movlw	255
  5692  00335C  2166               	addwfc	(sqrtf@i+2)& (0+255),w,b
  5693  00335E  6E44               	movwf	(??_sqrtf+2)^0,c
  5694  003360  0EFF               	movlw	255
  5695  003362  2167               	addwfc	(sqrtf@i+3)& (0+255),w,b
  5696  003364  6E45               	movwf	(??_sqrtf+3)^0,c
  5697  003366  5042               	movf	??_sqrtf^0,w,c
  5698  003368  5F78               	subwf	sqrtf@m& (0+255),f,b
  5699  00336A  5043               	movf	(??_sqrtf+1)^0,w,c
  5700  00336C  5B79               	subwfb	(sqrtf@m+1)& (0+255),f,b
  5701  00336E  5044               	movf	(??_sqrtf+2)^0,w,c
  5702  003370  5B7A               	subwfb	(sqrtf@m+2)& (0+255),f,b
  5703  003372  5045               	movf	(??_sqrtf+3)^0,w,c
  5704  003374  5B7B               	subwfb	(sqrtf@m+3)& (0+255),f,b
  5705  003376                     l1012:
  5706                           
  5707                           ; BSR set to: 0
  5708  003376  0E81               	movlw	129
  5709  003378  2778               	addwf	sqrtf@m& (0+255),f,b
  5710  00337A  0EFF               	movlw	255
  5711  00337C  2379               	addwfc	(sqrtf@m+1)& (0+255),f,b
  5712  00337E  0EFF               	movlw	255
  5713  003380  237A               	addwfc	(sqrtf@m+2)& (0+255),f,b
  5714  003382  0EFF               	movlw	255
  5715  003384  237B               	addwfc	(sqrtf@m+3)& (0+255),f,b
  5716  003386  0EFF               	movlw	255
  5717  003388  1580               	andwf	sqrtf@ix& (0+255),w,b
  5718  00338A  6E42               	movwf	??_sqrtf^0,c
  5719  00338C  0EFF               	movlw	255
  5720  00338E  1581               	andwf	(sqrtf@ix+1)& (0+255),w,b
  5721  003390  6E43               	movwf	(??_sqrtf+1)^0,c
  5722  003392  0E7F               	movlw	127
  5723  003394  1582               	andwf	(sqrtf@ix+2)& (0+255),w,b
  5724  003396  6E44               	movwf	(??_sqrtf+2)^0,c
  5725  003398  0E00               	movlw	0
  5726  00339A  1583               	andwf	(sqrtf@ix+3)& (0+255),w,b
  5727  00339C  6E45               	movwf	(??_sqrtf+3)^0,c
  5728  00339E  0E00               	movlw	0
  5729  0033A0  1042               	iorwf	??_sqrtf^0,w,c
  5730  0033A2  6F80               	movwf	sqrtf@ix& (0+255),b
  5731  0033A4  0E00               	movlw	0
  5732  0033A6  1043               	iorwf	(??_sqrtf+1)^0,w,c
  5733  0033A8  6F81               	movwf	(sqrtf@ix+1)& (0+255),b
  5734  0033AA  0E80               	movlw	128
  5735  0033AC  1044               	iorwf	(??_sqrtf+2)^0,w,c
  5736  0033AE  6F82               	movwf	(sqrtf@ix+2)& (0+255),b
  5737  0033B0  0E00               	movlw	0
  5738  0033B2  1045               	iorwf	(??_sqrtf+3)^0,w,c
  5739  0033B4  6F83               	movwf	(sqrtf@ix+3)& (0+255),b
  5740  0033B6                     
  5741                           ; BSR set to: 0
  5742  0033B6  A178               	btfss	sqrtf@m& (0+255),0,b
  5743  0033B8  EFE0  F019         	goto	u3211
  5744  0033BC  EFE2  F019         	goto	u3210
  5745  0033C0                     u3211:
  5746  0033C0  EFEA  F019         	goto	l1016
  5747  0033C4                     u3210:
  5748  0033C4                     
  5749                           ; BSR set to: 0
  5750  0033C4  5180               	movf	sqrtf@ix& (0+255),w,b
  5751  0033C6  2780               	addwf	sqrtf@ix& (0+255),f,b
  5752  0033C8  5181               	movf	(sqrtf@ix+1)& (0+255),w,b
  5753  0033CA  2381               	addwfc	(sqrtf@ix+1)& (0+255),f,b
  5754  0033CC  5182               	movf	(sqrtf@ix+2)& (0+255),w,b
  5755  0033CE  2382               	addwfc	(sqrtf@ix+2)& (0+255),f,b
  5756  0033D0  5183               	movf	(sqrtf@ix+3)& (0+255),w,b
  5757  0033D2  2383               	addwfc	(sqrtf@ix+3)& (0+255),f,b
  5758  0033D4                     l1016:
  5759                           
  5760                           ; BSR set to: 0
  5761  0033D4  357B               	rlcf	(sqrtf@m+3)& (0+255),w,b
  5762  0033D6  337B               	rrcf	(sqrtf@m+3)& (0+255),f,b
  5763  0033D8  337A               	rrcf	(sqrtf@m+2)& (0+255),f,b
  5764  0033DA  3379               	rrcf	(sqrtf@m+1)& (0+255),f,b
  5765  0033DC  3378               	rrcf	sqrtf@m& (0+255),f,b
  5766  0033DE  5180               	movf	sqrtf@ix& (0+255),w,b
  5767  0033E0  2780               	addwf	sqrtf@ix& (0+255),f,b
  5768  0033E2  5181               	movf	(sqrtf@ix+1)& (0+255),w,b
  5769  0033E4  2381               	addwfc	(sqrtf@ix+1)& (0+255),f,b
  5770  0033E6  5182               	movf	(sqrtf@ix+2)& (0+255),w,b
  5771  0033E8  2382               	addwfc	(sqrtf@ix+2)& (0+255),f,b
  5772  0033EA  5183               	movf	(sqrtf@ix+3)& (0+255),w,b
  5773  0033EC  2383               	addwfc	(sqrtf@ix+3)& (0+255),f,b
  5774  0033EE                     
  5775                           ; BSR set to: 0
  5776  0033EE  0E00               	movlw	0
  5777  0033F0  6F60               	movwf	sqrtf@s& (0+255),b
  5778  0033F2  0E00               	movlw	0
  5779  0033F4  6F61               	movwf	(sqrtf@s+1)& (0+255),b
  5780  0033F6  0E00               	movlw	0
  5781  0033F8  6F62               	movwf	(sqrtf@s+2)& (0+255),b
  5782  0033FA  0E00               	movlw	0
  5783  0033FC  6F63               	movwf	(sqrtf@s+3)& (0+255),b
  5784  0033FE  C060  F06C         	movff	sqrtf@s,sqrtf@q
  5785  003402  C061  F06D         	movff	sqrtf@s+1,sqrtf@q+1
  5786  003406  C062  F06E         	movff	sqrtf@s+2,sqrtf@q+2
  5787  00340A  C063  F06F         	movff	sqrtf@s+3,sqrtf@q+3
  5788  00340E                     
  5789                           ; BSR set to: 0
  5790  00340E  0E00               	movlw	0
  5791  003410  6F7C               	movwf	sqrtf@r& (0+255),b
  5792  003412  0E00               	movlw	0
  5793  003414  6F7D               	movwf	(sqrtf@r+1)& (0+255),b
  5794  003416  0E00               	movlw	0
  5795  003418  6F7E               	movwf	(sqrtf@r+2)& (0+255),b
  5796  00341A  0E01               	movlw	1
  5797  00341C  6F7F               	movwf	(sqrtf@r+3)& (0+255),b
  5798  00341E  EF59  F01A         	goto	l3129
  5799  003422                     l3123:
  5800                           
  5801                           ; BSR set to: 0
  5802  003422  5160               	movf	sqrtf@s& (0+255),w,b
  5803  003424  257C               	addwf	sqrtf@r& (0+255),w,b
  5804  003426  6F70               	movwf	sqrtf@t& (0+255),b
  5805  003428  5161               	movf	(sqrtf@s+1)& (0+255),w,b
  5806  00342A  217D               	addwfc	(sqrtf@r+1)& (0+255),w,b
  5807  00342C  6F71               	movwf	(sqrtf@t+1)& (0+255),b
  5808  00342E  5162               	movf	(sqrtf@s+2)& (0+255),w,b
  5809  003430  217E               	addwfc	(sqrtf@r+2)& (0+255),w,b
  5810  003432  6F72               	movwf	(sqrtf@t+2)& (0+255),b
  5811  003434  5163               	movf	(sqrtf@s+3)& (0+255),w,b
  5812  003436  217F               	addwfc	(sqrtf@r+3)& (0+255),w,b
  5813  003438  6F73               	movwf	(sqrtf@t+3)& (0+255),b
  5814  00343A  5170               	movf	sqrtf@t& (0+255),w,b
  5815  00343C  5D80               	subwf	sqrtf@ix& (0+255),w,b
  5816  00343E  5171               	movf	(sqrtf@t+1)& (0+255),w,b
  5817  003440  5981               	subwfb	(sqrtf@ix+1)& (0+255),w,b
  5818  003442  5172               	movf	(sqrtf@t+2)& (0+255),w,b
  5819  003444  5982               	subwfb	(sqrtf@ix+2)& (0+255),w,b
  5820  003446  5183               	movf	(sqrtf@ix+3)& (0+255),w,b
  5821  003448  0A80               	xorlw	128
  5822  00344A  6E42               	movwf	??_sqrtf^0,c
  5823  00344C  5173               	movf	(sqrtf@t+3)& (0+255),w,b
  5824  00344E  0A80               	xorlw	128
  5825  003450  5842               	subwfb	??_sqrtf^0,w,c
  5826  003452  A0D8               	btfss	status,0,c
  5827  003454  EF2E  F01A         	goto	u3221
  5828  003458  EF30  F01A         	goto	u3220
  5829  00345C                     u3221:
  5830  00345C  EF4C  F01A         	goto	l1019
  5831  003460                     u3220:
  5832  003460                     
  5833                           ; BSR set to: 0
  5834  003460  5170               	movf	sqrtf@t& (0+255),w,b
  5835  003462  257C               	addwf	sqrtf@r& (0+255),w,b
  5836  003464  6F60               	movwf	sqrtf@s& (0+255),b
  5837  003466  5171               	movf	(sqrtf@t+1)& (0+255),w,b
  5838  003468  217D               	addwfc	(sqrtf@r+1)& (0+255),w,b
  5839  00346A  6F61               	movwf	(sqrtf@s+1)& (0+255),b
  5840  00346C  5172               	movf	(sqrtf@t+2)& (0+255),w,b
  5841  00346E  217E               	addwfc	(sqrtf@r+2)& (0+255),w,b
  5842  003470  6F62               	movwf	(sqrtf@s+2)& (0+255),b
  5843  003472  5173               	movf	(sqrtf@t+3)& (0+255),w,b
  5844  003474  217F               	addwfc	(sqrtf@r+3)& (0+255),w,b
  5845  003476  6F63               	movwf	(sqrtf@s+3)& (0+255),b
  5846  003478  5170               	movf	sqrtf@t& (0+255),w,b
  5847  00347A  5F80               	subwf	sqrtf@ix& (0+255),f,b
  5848  00347C  5171               	movf	(sqrtf@t+1)& (0+255),w,b
  5849  00347E  5B81               	subwfb	(sqrtf@ix+1)& (0+255),f,b
  5850  003480  5172               	movf	(sqrtf@t+2)& (0+255),w,b
  5851  003482  5B82               	subwfb	(sqrtf@ix+2)& (0+255),f,b
  5852  003484  5173               	movf	(sqrtf@t+3)& (0+255),w,b
  5853  003486  5B83               	subwfb	(sqrtf@ix+3)& (0+255),f,b
  5854  003488  517C               	movf	sqrtf@r& (0+255),w,b
  5855  00348A  276C               	addwf	sqrtf@q& (0+255),f,b
  5856  00348C  517D               	movf	(sqrtf@r+1)& (0+255),w,b
  5857  00348E  236D               	addwfc	(sqrtf@q+1)& (0+255),f,b
  5858  003490  517E               	movf	(sqrtf@r+2)& (0+255),w,b
  5859  003492  236E               	addwfc	(sqrtf@q+2)& (0+255),f,b
  5860  003494  517F               	movf	(sqrtf@r+3)& (0+255),w,b
  5861  003496  236F               	addwfc	(sqrtf@q+3)& (0+255),f,b
  5862  003498                     l1019:
  5863                           
  5864                           ; BSR set to: 0
  5865  003498  5180               	movf	sqrtf@ix& (0+255),w,b
  5866  00349A  2780               	addwf	sqrtf@ix& (0+255),f,b
  5867  00349C  5181               	movf	(sqrtf@ix+1)& (0+255),w,b
  5868  00349E  2381               	addwfc	(sqrtf@ix+1)& (0+255),f,b
  5869  0034A0  5182               	movf	(sqrtf@ix+2)& (0+255),w,b
  5870  0034A2  2382               	addwfc	(sqrtf@ix+2)& (0+255),f,b
  5871  0034A4  5183               	movf	(sqrtf@ix+3)& (0+255),w,b
  5872  0034A6  2383               	addwfc	(sqrtf@ix+3)& (0+255),f,b
  5873  0034A8                     
  5874                           ; BSR set to: 0
  5875  0034A8  90D8               	bcf	status,0,c
  5876  0034AA  337F               	rrcf	(sqrtf@r+3)& (0+255),f,b
  5877  0034AC  337E               	rrcf	(sqrtf@r+2)& (0+255),f,b
  5878  0034AE  337D               	rrcf	(sqrtf@r+1)& (0+255),f,b
  5879  0034B0  337C               	rrcf	sqrtf@r& (0+255),f,b
  5880  0034B2                     l3129:
  5881                           
  5882                           ; BSR set to: 0
  5883  0034B2  517C               	movf	sqrtf@r& (0+255),w,b
  5884  0034B4  117D               	iorwf	(sqrtf@r+1)& (0+255),w,b
  5885  0034B6  117E               	iorwf	(sqrtf@r+2)& (0+255),w,b
  5886  0034B8  117F               	iorwf	(sqrtf@r+3)& (0+255),w,b
  5887  0034BA  A4D8               	btfss	status,2,c
  5888  0034BC  EF62  F01A         	goto	u3231
  5889  0034C0  EF64  F01A         	goto	u3230
  5890  0034C4                     u3231:
  5891  0034C4  EF11  F01A         	goto	l3123
  5892  0034C8                     u3230:
  5893  0034C8                     
  5894                           ; BSR set to: 0
  5895  0034C8  5180               	movf	sqrtf@ix& (0+255),w,b
  5896  0034CA  1181               	iorwf	(sqrtf@ix+1)& (0+255),w,b
  5897  0034CC  1182               	iorwf	(sqrtf@ix+2)& (0+255),w,b
  5898  0034CE  1183               	iorwf	(sqrtf@ix+3)& (0+255),w,b
  5899  0034D0  B4D8               	btfsc	status,2,c
  5900  0034D2  EF6D  F01A         	goto	u3241
  5901  0034D6  EF6F  F01A         	goto	u3240
  5902  0034DA                     u3241:
  5903  0034DA  EFD0  F01A         	goto	l1021
  5904  0034DE                     u3240:
  5905  0034DE                     
  5906                           ; BSR set to: 0
  5907  0034DE  0E00               	movlw	0
  5908  0034E0  6F74               	movwf	sqrtf@z& (0+255),b
  5909  0034E2  0E00               	movlw	0
  5910  0034E4  6F75               	movwf	(sqrtf@z+1)& (0+255),b
  5911  0034E6  0E80               	movlw	128
  5912  0034E8  6F76               	movwf	(sqrtf@z+2)& (0+255),b
  5913  0034EA  0E3F               	movlw	63
  5914  0034EC  6F77               	movwf	(sqrtf@z+3)& (0+255),b
  5915  0034EE                     
  5916                           ; BSR set to: 0
  5917  0034EE  C074  F032         	movff	sqrtf@z,___flge@ff1
  5918  0034F2  C075  F033         	movff	sqrtf@z+1,___flge@ff1+1
  5919  0034F6  C076  F034         	movff	sqrtf@z+2,___flge@ff1+2
  5920  0034FA  C077  F035         	movff	sqrtf@z+3,___flge@ff1+3
  5921  0034FE  0E00               	movlw	0
  5922  003500  6E36               	movwf	___flge@ff2^0,c
  5923  003502  0E00               	movlw	0
  5924  003504  6E37               	movwf	(___flge@ff2+1)^0,c
  5925  003506  0E80               	movlw	128
  5926  003508  6E38               	movwf	(___flge@ff2+2)^0,c
  5927  00350A  0E3F               	movlw	63
  5928  00350C  6E39               	movwf	(___flge@ff2+3)^0,c
  5929  00350E  ECF8  F027         	call	___flge	;wreg free
  5930  003512  A0D8               	btfss	status,0,c
  5931  003514  EF8E  F01A         	goto	u3251
  5932  003518  EF90  F01A         	goto	u3250
  5933  00351C                     u3251:
  5934  00351C  EFD0  F01A         	goto	l1021
  5935  003520                     u3250:
  5936  003520  0E00               	movlw	0
  5937  003522  0100               	movlb	0	; () banked
  5938  003524  6F74               	movwf	sqrtf@z& (0+255),b
  5939  003526  0E00               	movlw	0
  5940  003528  6F75               	movwf	(sqrtf@z+1)& (0+255),b
  5941  00352A  0E80               	movlw	128
  5942  00352C  6F76               	movwf	(sqrtf@z+2)& (0+255),b
  5943  00352E  0E3F               	movlw	63
  5944  003530  6F77               	movwf	(sqrtf@z+3)& (0+255),b
  5945  003532                     
  5946                           ; BSR set to: 0
  5947  003532  0E00               	movlw	0
  5948  003534  6E32               	movwf	___flge@ff1^0,c
  5949  003536  0E00               	movlw	0
  5950  003538  6E33               	movwf	(___flge@ff1+1)^0,c
  5951  00353A  0E80               	movlw	128
  5952  00353C  6E34               	movwf	(___flge@ff1+2)^0,c
  5953  00353E  0E3F               	movlw	63
  5954  003540  6E35               	movwf	(___flge@ff1+3)^0,c
  5955  003542  C074  F036         	movff	sqrtf@z,___flge@ff2
  5956  003546  C075  F037         	movff	sqrtf@z+1,___flge@ff2+1
  5957  00354A  C076  F038         	movff	sqrtf@z+2,___flge@ff2+2
  5958  00354E  C077  F039         	movff	sqrtf@z+3,___flge@ff2+3
  5959  003552  ECF8  F027         	call	___flge	;wreg free
  5960  003556  B0D8               	btfsc	status,0,c
  5961  003558  EFB0  F01A         	goto	u3261
  5962  00355C  EFB2  F01A         	goto	u3260
  5963  003560                     u3261:
  5964  003560  EFBB  F01A         	goto	l3143
  5965  003564                     u3260:
  5966  003564  0E02               	movlw	2
  5967  003566  0100               	movlb	0	; () banked
  5968  003568  276C               	addwf	sqrtf@q& (0+255),f,b
  5969  00356A  0E00               	movlw	0
  5970  00356C  236D               	addwfc	(sqrtf@q+1)& (0+255),f,b
  5971  00356E  236E               	addwfc	(sqrtf@q+2)& (0+255),f,b
  5972  003570  236F               	addwfc	(sqrtf@q+3)& (0+255),f,b
  5973  003572  EFD0  F01A         	goto	l1021
  5974  003576                     l3143:
  5975  003576  0E01               	movlw	1
  5976  003578  0100               	movlb	0	; () banked
  5977  00357A  156C               	andwf	sqrtf@q& (0+255),w,b
  5978  00357C  6E42               	movwf	??_sqrtf^0,c
  5979  00357E  0E00               	movlw	0
  5980  003580  156D               	andwf	(sqrtf@q+1)& (0+255),w,b
  5981  003582  6E43               	movwf	(??_sqrtf+1)^0,c
  5982  003584  0E00               	movlw	0
  5983  003586  156E               	andwf	(sqrtf@q+2)& (0+255),w,b
  5984  003588  6E44               	movwf	(??_sqrtf+2)^0,c
  5985  00358A  0E00               	movlw	0
  5986  00358C  156F               	andwf	(sqrtf@q+3)& (0+255),w,b
  5987  00358E  6E45               	movwf	(??_sqrtf+3)^0,c
  5988  003590  5042               	movf	??_sqrtf^0,w,c
  5989  003592  276C               	addwf	sqrtf@q& (0+255),f,b
  5990  003594  5043               	movf	(??_sqrtf+1)^0,w,c
  5991  003596  236D               	addwfc	(sqrtf@q+1)& (0+255),f,b
  5992  003598  5044               	movf	(??_sqrtf+2)^0,w,c
  5993  00359A  236E               	addwfc	(sqrtf@q+2)& (0+255),f,b
  5994  00359C  5045               	movf	(??_sqrtf+3)^0,w,c
  5995  00359E  236F               	addwfc	(sqrtf@q+3)& (0+255),f,b
  5996  0035A0                     l1021:
  5997  0035A0  C06C  F042         	movff	sqrtf@q,??_sqrtf
  5998  0035A4  C06D  F043         	movff	sqrtf@q+1,??_sqrtf+1
  5999  0035A8  C06E  F044         	movff	sqrtf@q+2,??_sqrtf+2
  6000  0035AC  C06F  F045         	movff	sqrtf@q+3,??_sqrtf+3
  6001  0035B0  3445               	rlcf	(??_sqrtf+3)^0,w,c
  6002  0035B2  3245               	rrcf	(??_sqrtf+3)^0,f,c
  6003  0035B4  3244               	rrcf	(??_sqrtf+2)^0,f,c
  6004  0035B6  3243               	rrcf	(??_sqrtf+1)^0,f,c
  6005  0035B8  3242               	rrcf	??_sqrtf^0,f,c
  6006  0035BA  0E00               	movlw	0
  6007  0035BC  2442               	addwf	??_sqrtf^0,w,c
  6008  0035BE  0100               	movlb	0	; () banked
  6009  0035C0  6F80               	movwf	sqrtf@ix& (0+255),b
  6010  0035C2  0E00               	movlw	0
  6011  0035C4  2043               	addwfc	(??_sqrtf+1)^0,w,c
  6012  0035C6  6F81               	movwf	(sqrtf@ix+1)& (0+255),b
  6013  0035C8  0E00               	movlw	0
  6014  0035CA  2044               	addwfc	(??_sqrtf+2)^0,w,c
  6015  0035CC  6F82               	movwf	(sqrtf@ix+2)& (0+255),b
  6016  0035CE  0E3F               	movlw	63
  6017  0035D0  2045               	addwfc	(??_sqrtf+3)^0,w,c
  6018  0035D2  6F83               	movwf	(sqrtf@ix+3)& (0+255),b
  6019  0035D4  C078  F042         	movff	sqrtf@m,??_sqrtf
  6020  0035D8  C079  F043         	movff	sqrtf@m+1,??_sqrtf+1
  6021  0035DC  C07A  F044         	movff	sqrtf@m+2,??_sqrtf+2
  6022  0035E0  C07B  F045         	movff	sqrtf@m+3,??_sqrtf+3
  6023  0035E4  0E17               	movlw	23
  6024  0035E6                     u3275:
  6025  0035E6  90D8               	bcf	status,0,c
  6026  0035E8  3642               	rlcf	??_sqrtf^0,f,c
  6027  0035EA  3643               	rlcf	(??_sqrtf+1)^0,f,c
  6028  0035EC  3644               	rlcf	(??_sqrtf+2)^0,f,c
  6029  0035EE  3645               	rlcf	(??_sqrtf+3)^0,f,c
  6030  0035F0  2EE8               	decfsz	wreg,f,c
  6031  0035F2  EFF3  F01A         	goto	u3275
  6032  0035F6  5042               	movf	??_sqrtf^0,w,c
  6033  0035F8  2780               	addwf	sqrtf@ix& (0+255),f,b
  6034  0035FA  5043               	movf	(??_sqrtf+1)^0,w,c
  6035  0035FC  2381               	addwfc	(sqrtf@ix+1)& (0+255),f,b
  6036  0035FE  5044               	movf	(??_sqrtf+2)^0,w,c
  6037  003600  2382               	addwfc	(sqrtf@ix+2)& (0+255),f,b
  6038  003602  5045               	movf	(??_sqrtf+3)^0,w,c
  6039  003604  2383               	addwfc	(sqrtf@ix+3)& (0+255),f,b
  6040  003606                     
  6041                           ; BSR set to: 0
  6042  003606  C080  F068         	movff	sqrtf@ix,sqrtf@__xc8_float_word
  6043  00360A  C081  F069         	movff	sqrtf@ix+1,sqrtf@__xc8_float_word+1
  6044  00360E  C082  F06A         	movff	sqrtf@ix+2,sqrtf@__xc8_float_word+2
  6045  003612  C083  F06B         	movff	sqrtf@ix+3,sqrtf@__xc8_float_word+3
  6046  003616                     
  6047                           ; BSR set to: 0
  6048  003616  C068  F074         	movff	sqrtf@__xc8_float_word,sqrtf@z
  6049  00361A  C069  F075         	movff	sqrtf@__xc8_float_word+1,sqrtf@z+1
  6050  00361E  C06A  F076         	movff	sqrtf@__xc8_float_word+2,sqrtf@z+2
  6051  003622  C06B  F077         	movff	sqrtf@__xc8_float_word+3,sqrtf@z+3
  6052  003626                     
  6053                           ; BSR set to: 0
  6054  003626  C074  F03E         	movff	sqrtf@z,?_sqrtf
  6055  00362A  C075  F03F         	movff	sqrtf@z+1,?_sqrtf+1
  6056  00362E  C076  F040         	movff	sqrtf@z+2,?_sqrtf+2
  6057  003632  C077  F041         	movff	sqrtf@z+3,?_sqrtf+3
  6058  003636                     l1008:
  6059  003636  0012               	return		;funcret
  6060  003638                     __end_of_sqrtf:
  6061                           	callstack 0
  6062                           
  6063 ;; *************** function _nanf *****************
  6064 ;; Defined at:
  6065 ;;		line 4 in file "C:\Program Files\Microchip\xc8\v2.36\pic\sources\c99\common\nanf.c"
  6066 ;; Parameters:    Size  Location     Type
  6067 ;;  s               2    0[COMRAM] PTR const unsigned char 
  6068 ;;		 -> STR_1(1), 
  6069 ;; Auto vars:     Size  Location     Type
  6070 ;;  u               4    4[COMRAM] struct .
  6071 ;; Return value:  Size  Location     Type
  6072 ;;                  4    0[COMRAM] float 
  6073 ;; Registers used:
  6074 ;;		wreg, status,2
  6075 ;; Tracked objects:
  6076 ;;		On entry : 0/0
  6077 ;;		On exit  : 0/0
  6078 ;;		Unchanged: 0/0
  6079 ;; Data sizes:     COMRAM   BANK0   BANK1   BANK2   BANK3   BANK4   BANK5   BANK6   BANK7
  6080 ;;      Params:         4       0       0       0       0       0       0       0       0
  6081 ;;      Locals:         4       0       0       0       0       0       0       0       0
  6082 ;;      Temps:          0       0       0       0       0       0       0       0       0
  6083 ;;      Totals:         8       0       0       0       0       0       0       0       0
  6084 ;;Total ram usage:        8 bytes
  6085 ;; Hardware stack levels used: 1
  6086 ;; This function calls:
  6087 ;;		Nothing
  6088 ;; This function is called by:
  6089 ;;		_sqrtf
  6090 ;; This function uses a non-reentrant model
  6091 ;;
  6092                           
  6093                           	psect	text4
  6094  005282                     __ptext4:
  6095                           	callstack 0
  6096  005282                     _nanf:
  6097                           	callstack 27
  6098  005282  0EFF               	movlw	255
  6099  005284  6E05               	movwf	nanf@u^0,c
  6100  005286  0EFF               	movlw	255
  6101  005288  6E06               	movwf	(nanf@u+1)^0,c
  6102  00528A  0EFF               	movlw	255
  6103  00528C  6E07               	movwf	(nanf@u+2)^0,c
  6104  00528E  0E7F               	movlw	127
  6105  005290  6E08               	movwf	(nanf@u+3)^0,c
  6106  005292  C005  F001         	movff	nanf@u,?_nanf
  6107  005296  C006  F002         	movff	nanf@u+1,?_nanf+1
  6108  00529A  C007  F003         	movff	nanf@u+2,?_nanf+2
  6109  00529E  C008  F004         	movff	nanf@u+3,?_nanf+3
  6110  0052A2  0012               	return		;funcret
  6111  0052A4                     __end_of_nanf:
  6112                           	callstack 0
  6113                           
  6114 ;; *************** function ___flge *****************
  6115 ;; Defined at:
  6116 ;;		line 4 in file "C:\Program Files\Microchip\xc8\v2.36\pic\sources\c99\common\flge.c"
  6117 ;; Parameters:    Size  Location     Type
  6118 ;;  ff1             4   49[COMRAM] float 
  6119 ;;  ff2             4   53[COMRAM] float 
  6120 ;; Auto vars:     Size  Location     Type
  6121 ;;		None
  6122 ;; Return value:  Size  Location     Type
  6123 ;;		None               void
  6124 ;; Registers used:
  6125 ;;		wreg, status,2, status,0
  6126 ;; Tracked objects:
  6127 ;;		On entry : 0/0
  6128 ;;		On exit  : 0/0
  6129 ;;		Unchanged: 0/0
  6130 ;; Data sizes:     COMRAM   BANK0   BANK1   BANK2   BANK3   BANK4   BANK5   BANK6   BANK7
  6131 ;;      Params:         8       0       0       0       0       0       0       0       0
  6132 ;;      Locals:         0       0       0       0       0       0       0       0       0
  6133 ;;      Temps:          4       0       0       0       0       0       0       0       0
  6134 ;;      Totals:        12       0       0       0       0       0       0       0       0
  6135 ;;Total ram usage:       12 bytes
  6136 ;; Hardware stack levels used: 1
  6137 ;; This function calls:
  6138 ;;		Nothing
  6139 ;; This function is called by:
  6140 ;;		_powf
  6141 ;;		_sqrtf
  6142 ;; This function uses a non-reentrant model
  6143 ;;
  6144                           
  6145                           	psect	text5
  6146  004FF0                     __ptext5:
  6147                           	callstack 0
  6148  004FF0                     ___flge:
  6149                           	callstack 27
  6150  004FF0  0E00               	movlw	0
  6151  004FF2  1432               	andwf	___flge@ff1^0,w,c
  6152  004FF4  6E3A               	movwf	??___flge^0,c
  6153  004FF6  0E00               	movlw	0
  6154  004FF8  1433               	andwf	(___flge@ff1+1)^0,w,c
  6155  004FFA  6E3B               	movwf	(??___flge+1)^0,c
  6156  004FFC  0E80               	movlw	128
  6157  004FFE  1434               	andwf	(___flge@ff1+2)^0,w,c
  6158  005000  6E3C               	movwf	(??___flge+2)^0,c
  6159  005002  0E7F               	movlw	127
  6160  005004  1435               	andwf	(___flge@ff1+3)^0,w,c
  6161  005006  6E3D               	movwf	(??___flge+3)^0,c
  6162  005008  503A               	movf	??___flge^0,w,c
  6163  00500A  103B               	iorwf	(??___flge+1)^0,w,c
  6164  00500C  103C               	iorwf	(??___flge+2)^0,w,c
  6165  00500E  103D               	iorwf	(??___flge+3)^0,w,c
  6166  005010  A4D8               	btfss	status,2,c
  6167  005012  EF0D  F028         	goto	u2751
  6168  005016  EF0F  F028         	goto	u2750
  6169  00501A                     u2751:
  6170  00501A  EF17  F028         	goto	l2855
  6171  00501E                     u2750:
  6172  00501E  0E00               	movlw	0
  6173  005020  6E32               	movwf	___flge@ff1^0,c
  6174  005022  0E00               	movlw	0
  6175  005024  6E33               	movwf	(___flge@ff1+1)^0,c
  6176  005026  0E00               	movlw	0
  6177  005028  6E34               	movwf	(___flge@ff1+2)^0,c
  6178  00502A  0E00               	movlw	0
  6179  00502C  6E35               	movwf	(___flge@ff1+3)^0,c
  6180  00502E                     l2855:
  6181  00502E  0E00               	movlw	0
  6182  005030  1436               	andwf	___flge@ff2^0,w,c
  6183  005032  6E3A               	movwf	??___flge^0,c
  6184  005034  0E00               	movlw	0
  6185  005036  1437               	andwf	(___flge@ff2+1)^0,w,c
  6186  005038  6E3B               	movwf	(??___flge+1)^0,c
  6187  00503A  0E80               	movlw	128
  6188  00503C  1438               	andwf	(___flge@ff2+2)^0,w,c
  6189  00503E  6E3C               	movwf	(??___flge+2)^0,c
  6190  005040  0E7F               	movlw	127
  6191  005042  1439               	andwf	(___flge@ff2+3)^0,w,c
  6192  005044  6E3D               	movwf	(??___flge+3)^0,c
  6193  005046  503A               	movf	??___flge^0,w,c
  6194  005048  103B               	iorwf	(??___flge+1)^0,w,c
  6195  00504A  103C               	iorwf	(??___flge+2)^0,w,c
  6196  00504C  103D               	iorwf	(??___flge+3)^0,w,c
  6197  00504E  A4D8               	btfss	status,2,c
  6198  005050  EF2C  F028         	goto	u2761
  6199  005054  EF2E  F028         	goto	u2760
  6200  005058                     u2761:
  6201  005058  EF36  F028         	goto	l2859
  6202  00505C                     u2760:
  6203  00505C  0E00               	movlw	0
  6204  00505E  6E36               	movwf	___flge@ff2^0,c
  6205  005060  0E00               	movlw	0
  6206  005062  6E37               	movwf	(___flge@ff2+1)^0,c
  6207  005064  0E00               	movlw	0
  6208  005066  6E38               	movwf	(___flge@ff2+2)^0,c
  6209  005068  0E00               	movlw	0
  6210  00506A  6E39               	movwf	(___flge@ff2+3)^0,c
  6211  00506C                     l2859:
  6212  00506C  AE35               	btfss	(___flge@ff1+3)^0,7,c
  6213  00506E  EF3B  F028         	goto	u2771
  6214  005072  EF3D  F028         	goto	u2770
  6215  005076                     u2771:
  6216  005076  EF46  F028         	goto	l2863
  6217  00507A                     u2770:
  6218  00507A  6C32               	negf	___flge@ff1^0,c
  6219  00507C  1E33               	comf	(___flge@ff1+1)^0,f,c
  6220  00507E  B0D8               	btfsc	status,0,c
  6221  005080  2A33               	incf	(___flge@ff1+1)^0,f,c
  6222  005082  1E34               	comf	(___flge@ff1+2)^0,f,c
  6223  005084  B0D8               	btfsc	status,0,c
  6224  005086  2A34               	incf	(___flge@ff1+2)^0,f,c
  6225  005088  0E80               	movlw	128
  6226  00508A  5635               	subfwb	(___flge@ff1+3)^0,f,c
  6227  00508C                     l2863:
  6228  00508C  AE39               	btfss	(___flge@ff2+3)^0,7,c
  6229  00508E  EF4B  F028         	goto	u2781
  6230  005092  EF4D  F028         	goto	u2780
  6231  005096                     u2781:
  6232  005096  EF56  F028         	goto	l390
  6233  00509A                     u2780:
  6234  00509A  6C36               	negf	___flge@ff2^0,c
  6235  00509C  1E37               	comf	(___flge@ff2+1)^0,f,c
  6236  00509E  B0D8               	btfsc	status,0,c
  6237  0050A0  2A37               	incf	(___flge@ff2+1)^0,f,c
  6238  0050A2  1E38               	comf	(___flge@ff2+2)^0,f,c
  6239  0050A4  B0D8               	btfsc	status,0,c
  6240  0050A6  2A38               	incf	(___flge@ff2+2)^0,f,c
  6241  0050A8  0E80               	movlw	128
  6242  0050AA  5639               	subfwb	(___flge@ff2+3)^0,f,c
  6243  0050AC                     l390:
  6244  0050AC  0E00               	movlw	0
  6245  0050AE  1A32               	xorwf	___flge@ff1^0,f,c
  6246  0050B0  0E00               	movlw	0
  6247  0050B2  1A33               	xorwf	(___flge@ff1+1)^0,f,c
  6248  0050B4  0E00               	movlw	0
  6249  0050B6  1A34               	xorwf	(___flge@ff1+2)^0,f,c
  6250  0050B8  0E80               	movlw	128
  6251  0050BA  1A35               	xorwf	(___flge@ff1+3)^0,f,c
  6252  0050BC  0E00               	movlw	0
  6253  0050BE  1A36               	xorwf	___flge@ff2^0,f,c
  6254  0050C0  0E00               	movlw	0
  6255  0050C2  1A37               	xorwf	(___flge@ff2+1)^0,f,c
  6256  0050C4  0E00               	movlw	0
  6257  0050C6  1A38               	xorwf	(___flge@ff2+2)^0,f,c
  6258  0050C8  0E80               	movlw	128
  6259  0050CA  1A39               	xorwf	(___flge@ff2+3)^0,f,c
  6260  0050CC  5036               	movf	___flge@ff2^0,w,c
  6261  0050CE  5C32               	subwf	___flge@ff1^0,w,c
  6262  0050D0  5037               	movf	(___flge@ff2+1)^0,w,c
  6263  0050D2  5833               	subwfb	(___flge@ff1+1)^0,w,c
  6264  0050D4  5038               	movf	(___flge@ff2+2)^0,w,c
  6265  0050D6  5834               	subwfb	(___flge@ff1+2)^0,w,c
  6266  0050D8  5039               	movf	(___flge@ff2+3)^0,w,c
  6267  0050DA  5835               	subwfb	(___flge@ff1+3)^0,w,c
  6268  0050DC  B0D8               	btfsc	status,0,c
  6269  0050DE  EF73  F028         	goto	u2791
  6270  0050E2  EF75  F028         	goto	u2790
  6271  0050E6                     u2791:
  6272  0050E6  EF78  F028         	goto	l2869
  6273  0050EA                     u2790:
  6274  0050EA  90D8               	bcf	status,0,c
  6275  0050EC  EF79  F028         	goto	l395
  6276  0050F0                     l2869:
  6277  0050F0  80D8               	bsf	status,0,c
  6278  0050F2                     l395:
  6279  0050F2  0012               	return		;funcret
  6280  0050F4                     __end_of___flge:
  6281                           	callstack 0
  6282                           
  6283 ;; *************** function _scalbnf *****************
  6284 ;; Defined at:
  6285 ;;		line 4 in file "C:\Program Files\Microchip\xc8\v2.36\pic\sources\c99\common\scalbnf.c"
  6286 ;; Parameters:    Size  Location     Type
  6287 ;;  x               4   41[COMRAM] float 
  6288 ;;  n               2   45[COMRAM] int 
  6289 ;; Auto vars:     Size  Location     Type
  6290 ;;  y               4   55[COMRAM] float 
  6291 ;;  u               4   51[COMRAM] struct .
  6292 ;; Return value:  Size  Location     Type
  6293 ;;                  4   41[COMRAM] float 
  6294 ;; Registers used:
  6295 ;;		wreg, status,2, status,0, prodl, prodh, cstack
  6296 ;; Tracked objects:
  6297 ;;		On entry : 0/0
  6298 ;;		On exit  : 0/0
  6299 ;;		Unchanged: 0/0
  6300 ;; Data sizes:     COMRAM   BANK0   BANK1   BANK2   BANK3   BANK4   BANK5   BANK6   BANK7
  6301 ;;      Params:         6       0       0       0       0       0       0       0       0
  6302 ;;      Locals:         8       0       0       0       0       0       0       0       0
  6303 ;;      Temps:          4       0       0       0       0       0       0       0       0
  6304 ;;      Totals:        18       0       0       0       0       0       0       0       0
  6305 ;;Total ram usage:       18 bytes
  6306 ;; Hardware stack levels used: 1
  6307 ;; Hardware stack levels required when called: 1
  6308 ;; This function calls:
  6309 ;;		___flmul
  6310 ;; This function is called by:
  6311 ;;		_powf
  6312 ;; This function uses a non-reentrant model
  6313 ;;
  6314                           
  6315                           	psect	text6
  6316  0049DC                     __ptext6:
  6317                           	callstack 0
  6318  0049DC                     _scalbnf:
  6319                           	callstack 27
  6320  0049DC  C02A  F038         	movff	scalbnf@x,scalbnf@y
  6321  0049E0  C02B  F039         	movff	scalbnf@x+1,scalbnf@y+1
  6322  0049E4  C02C  F03A         	movff	scalbnf@x+2,scalbnf@y+2
  6323  0049E8  C02D  F03B         	movff	scalbnf@x+3,scalbnf@y+3
  6324  0049EC  BE2F               	btfsc	(scalbnf@n+1)^0,7,c
  6325  0049EE  EF02  F025         	goto	u3281
  6326  0049F2  502F               	movf	(scalbnf@n+1)^0,w,c
  6327  0049F4  E109               	bnz	u3280
  6328  0049F6  0E80               	movlw	128
  6329  0049F8  5C2E               	subwf	scalbnf@n^0,w,c
  6330  0049FA  A0D8               	btfss	status,0,c
  6331  0049FC  EF02  F025         	goto	u3281
  6332  004A00  EF04  F025         	goto	u3280
  6333  004A04                     u3281:
  6334  004A04  EF62  F025         	goto	l3179
  6335  004A08                     u3280:
  6336  004A08  C038  F011         	movff	scalbnf@y,___flmul@b
  6337  004A0C  C039  F012         	movff	scalbnf@y+1,___flmul@b+1
  6338  004A10  C03A  F013         	movff	scalbnf@y+2,___flmul@b+2
  6339  004A14  C03B  F014         	movff	scalbnf@y+3,___flmul@b+3
  6340  004A18  0E00               	movlw	0
  6341  004A1A  6E15               	movwf	___flmul@a^0,c
  6342  004A1C  0E00               	movlw	0
  6343  004A1E  6E16               	movwf	(___flmul@a+1)^0,c
  6344  004A20  0E00               	movlw	0
  6345  004A22  6E17               	movwf	(___flmul@a+2)^0,c
  6346  004A24  0E7F               	movlw	127
  6347  004A26  6E18               	movwf	(___flmul@a+3)^0,c
  6348  004A28  ECBA  F01F         	call	___flmul	;wreg free
  6349  004A2C  C011  F038         	movff	?___flmul,scalbnf@y
  6350  004A30  C012  F039         	movff	?___flmul+1,scalbnf@y+1
  6351  004A34  C013  F03A         	movff	?___flmul+2,scalbnf@y+2
  6352  004A38  C014  F03B         	movff	?___flmul+3,scalbnf@y+3
  6353  004A3C  0E81               	movlw	129
  6354  004A3E  262E               	addwf	scalbnf@n^0,f,c
  6355  004A40  0EFF               	movlw	255
  6356  004A42  222F               	addwfc	(scalbnf@n+1)^0,f,c
  6357  004A44  BE2F               	btfsc	(scalbnf@n+1)^0,7,c
  6358  004A46  EF2E  F025         	goto	u3291
  6359  004A4A  502F               	movf	(scalbnf@n+1)^0,w,c
  6360  004A4C  E109               	bnz	u3290
  6361  004A4E  0E80               	movlw	128
  6362  004A50  5C2E               	subwf	scalbnf@n^0,w,c
  6363  004A52  A0D8               	btfss	status,0,c
  6364  004A54  EF2E  F025         	goto	u3291
  6365  004A58  EF30  F025         	goto	u3290
  6366  004A5C                     u3291:
  6367  004A5C  EFCC  F025         	goto	l3195
  6368  004A60                     u3290:
  6369  004A60  C038  F011         	movff	scalbnf@y,___flmul@b
  6370  004A64  C039  F012         	movff	scalbnf@y+1,___flmul@b+1
  6371  004A68  C03A  F013         	movff	scalbnf@y+2,___flmul@b+2
  6372  004A6C  C03B  F014         	movff	scalbnf@y+3,___flmul@b+3
  6373  004A70  0E00               	movlw	0
  6374  004A72  6E15               	movwf	___flmul@a^0,c
  6375  004A74  0E00               	movlw	0
  6376  004A76  6E16               	movwf	(___flmul@a+1)^0,c
  6377  004A78  0E00               	movlw	0
  6378  004A7A  6E17               	movwf	(___flmul@a+2)^0,c
  6379  004A7C  0E7F               	movlw	127
  6380  004A7E  6E18               	movwf	(___flmul@a+3)^0,c
  6381  004A80  ECBA  F01F         	call	___flmul	;wreg free
  6382  004A84  C011  F038         	movff	?___flmul,scalbnf@y
  6383  004A88  C012  F039         	movff	?___flmul+1,scalbnf@y+1
  6384  004A8C  C013  F03A         	movff	?___flmul+2,scalbnf@y+2
  6385  004A90  C014  F03B         	movff	?___flmul+3,scalbnf@y+3
  6386  004A94  0E81               	movlw	129
  6387  004A96  262E               	addwf	scalbnf@n^0,f,c
  6388  004A98  0EFF               	movlw	255
  6389  004A9A  222F               	addwfc	(scalbnf@n+1)^0,f,c
  6390  004A9C  BE2F               	btfsc	(scalbnf@n+1)^0,7,c
  6391  004A9E  EF5A  F025         	goto	u3301
  6392  004AA2  502F               	movf	(scalbnf@n+1)^0,w,c
  6393  004AA4  E109               	bnz	u3300
  6394  004AA6  0E80               	movlw	128
  6395  004AA8  5C2E               	subwf	scalbnf@n^0,w,c
  6396  004AAA  A0D8               	btfss	status,0,c
  6397  004AAC  EF5A  F025         	goto	u3301
  6398  004AB0  EF5C  F025         	goto	u3300
  6399  004AB4                     u3301:
  6400  004AB4  EFCC  F025         	goto	l3195
  6401  004AB8                     u3300:
  6402  004AB8  0E00               	movlw	0
  6403  004ABA  6E2F               	movwf	(scalbnf@n+1)^0,c
  6404  004ABC  0E7F               	movlw	127
  6405  004ABE  6E2E               	movwf	scalbnf@n^0,c
  6406  004AC0  EFCC  F025         	goto	l3195
  6407  004AC4                     l3179:
  6408  004AC4  AE2F               	btfss	(scalbnf@n+1)^0,7,c
  6409  004AC6  EF6E  F025         	goto	u3311
  6410  004ACA  0E82               	movlw	130
  6411  004ACC  5C2E               	subwf	scalbnf@n^0,w,c
  6412  004ACE  0EFF               	movlw	255
  6413  004AD0  582F               	subwfb	(scalbnf@n+1)^0,w,c
  6414  004AD2  B0D8               	btfsc	status,0,c
  6415  004AD4  EF6E  F025         	goto	u3311
  6416  004AD8  EF70  F025         	goto	u3310
  6417  004ADC                     u3311:
  6418  004ADC  EFCC  F025         	goto	l3195
  6419  004AE0                     u3310:
  6420  004AE0  C038  F011         	movff	scalbnf@y,___flmul@b
  6421  004AE4  C039  F012         	movff	scalbnf@y+1,___flmul@b+1
  6422  004AE8  C03A  F013         	movff	scalbnf@y+2,___flmul@b+2
  6423  004AEC  C03B  F014         	movff	scalbnf@y+3,___flmul@b+3
  6424  004AF0  0E00               	movlw	0
  6425  004AF2  6E15               	movwf	___flmul@a^0,c
  6426  004AF4  0E00               	movlw	0
  6427  004AF6  6E16               	movwf	(___flmul@a+1)^0,c
  6428  004AF8  0E80               	movlw	128
  6429  004AFA  6E17               	movwf	(___flmul@a+2)^0,c
  6430  004AFC  0E0C               	movlw	12
  6431  004AFE  6E18               	movwf	(___flmul@a+3)^0,c
  6432  004B00  ECBA  F01F         	call	___flmul	;wreg free
  6433  004B04  C011  F038         	movff	?___flmul,scalbnf@y
  6434  004B08  C012  F039         	movff	?___flmul+1,scalbnf@y+1
  6435  004B0C  C013  F03A         	movff	?___flmul+2,scalbnf@y+2
  6436  004B10  C014  F03B         	movff	?___flmul+3,scalbnf@y+3
  6437  004B14  0E66               	movlw	102
  6438  004B16  262E               	addwf	scalbnf@n^0,f,c
  6439  004B18  0E00               	movlw	0
  6440  004B1A  222F               	addwfc	(scalbnf@n+1)^0,f,c
  6441  004B1C  AE2F               	btfss	(scalbnf@n+1)^0,7,c
  6442  004B1E  EF9A  F025         	goto	u3321
  6443  004B22  0E82               	movlw	130
  6444  004B24  5C2E               	subwf	scalbnf@n^0,w,c
  6445  004B26  0EFF               	movlw	255
  6446  004B28  582F               	subwfb	(scalbnf@n+1)^0,w,c
  6447  004B2A  B0D8               	btfsc	status,0,c
  6448  004B2C  EF9A  F025         	goto	u3321
  6449  004B30  EF9C  F025         	goto	u3320
  6450  004B34                     u3321:
  6451  004B34  EFCC  F025         	goto	l3195
  6452  004B38                     u3320:
  6453  004B38  C038  F011         	movff	scalbnf@y,___flmul@b
  6454  004B3C  C039  F012         	movff	scalbnf@y+1,___flmul@b+1
  6455  004B40  C03A  F013         	movff	scalbnf@y+2,___flmul@b+2
  6456  004B44  C03B  F014         	movff	scalbnf@y+3,___flmul@b+3
  6457  004B48  0E00               	movlw	0
  6458  004B4A  6E15               	movwf	___flmul@a^0,c
  6459  004B4C  0E00               	movlw	0
  6460  004B4E  6E16               	movwf	(___flmul@a+1)^0,c
  6461  004B50  0E80               	movlw	128
  6462  004B52  6E17               	movwf	(___flmul@a+2)^0,c
  6463  004B54  0E0C               	movlw	12
  6464  004B56  6E18               	movwf	(___flmul@a+3)^0,c
  6465  004B58  ECBA  F01F         	call	___flmul	;wreg free
  6466  004B5C  C011  F038         	movff	?___flmul,scalbnf@y
  6467  004B60  C012  F039         	movff	?___flmul+1,scalbnf@y+1
  6468  004B64  C013  F03A         	movff	?___flmul+2,scalbnf@y+2
  6469  004B68  C014  F03B         	movff	?___flmul+3,scalbnf@y+3
  6470  004B6C  0E66               	movlw	102
  6471  004B6E  262E               	addwf	scalbnf@n^0,f,c
  6472  004B70  0E00               	movlw	0
  6473  004B72  222F               	addwfc	(scalbnf@n+1)^0,f,c
  6474  004B74  AE2F               	btfss	(scalbnf@n+1)^0,7,c
  6475  004B76  EFC6  F025         	goto	u3331
  6476  004B7A  0E82               	movlw	130
  6477  004B7C  5C2E               	subwf	scalbnf@n^0,w,c
  6478  004B7E  0EFF               	movlw	255
  6479  004B80  582F               	subwfb	(scalbnf@n+1)^0,w,c
  6480  004B82  B0D8               	btfsc	status,0,c
  6481  004B84  EFC6  F025         	goto	u3331
  6482  004B88  EFC8  F025         	goto	u3330
  6483  004B8C                     u3331:
  6484  004B8C  EFCC  F025         	goto	l3195
  6485  004B90                     u3330:
  6486  004B90  0EFF               	movlw	255
  6487  004B92  6E2F               	movwf	(scalbnf@n+1)^0,c
  6488  004B94  0E82               	movlw	130
  6489  004B96  6E2E               	movwf	scalbnf@n^0,c
  6490  004B98                     l3195:
  6491  004B98  0E7F               	movlw	127
  6492  004B9A  242E               	addwf	scalbnf@n^0,w,c
  6493  004B9C  6E30               	movwf	??_scalbnf^0,c
  6494  004B9E  0E00               	movlw	0
  6495  004BA0  202F               	addwfc	(scalbnf@n+1)^0,w,c
  6496  004BA2  6E31               	movwf	(??_scalbnf+1)^0,c
  6497  004BA4  6A32               	clrf	(??_scalbnf+2)^0,c
  6498  004BA6  6A33               	clrf	(??_scalbnf+3)^0,c
  6499  004BA8  0E17               	movlw	23
  6500  004BAA                     u3345:
  6501  004BAA  90D8               	bcf	status,0,c
  6502  004BAC  3630               	rlcf	??_scalbnf^0,f,c
  6503  004BAE  3631               	rlcf	(??_scalbnf+1)^0,f,c
  6504  004BB0  3632               	rlcf	(??_scalbnf+2)^0,f,c
  6505  004BB2  3633               	rlcf	(??_scalbnf+3)^0,f,c
  6506  004BB4  2EE8               	decfsz	wreg,f,c
  6507  004BB6  EFD5  F025         	goto	u3345
  6508  004BBA  C030  F034         	movff	??_scalbnf,scalbnf@u
  6509  004BBE  C031  F035         	movff	??_scalbnf+1,scalbnf@u+1
  6510  004BC2  C032  F036         	movff	??_scalbnf+2,scalbnf@u+2
  6511  004BC6  C033  F037         	movff	??_scalbnf+3,scalbnf@u+3
  6512  004BCA  C034  F011         	movff	scalbnf@u,___flmul@b
  6513  004BCE  C035  F012         	movff	scalbnf@u+1,___flmul@b+1
  6514  004BD2  C036  F013         	movff	scalbnf@u+2,___flmul@b+2
  6515  004BD6  C037  F014         	movff	scalbnf@u+3,___flmul@b+3
  6516  004BDA  C038  F015         	movff	scalbnf@y,___flmul@a
  6517  004BDE  C039  F016         	movff	scalbnf@y+1,___flmul@a+1
  6518  004BE2  C03A  F017         	movff	scalbnf@y+2,___flmul@a+2
  6519  004BE6  C03B  F018         	movff	scalbnf@y+3,___flmul@a+3
  6520  004BEA  ECBA  F01F         	call	___flmul	;wreg free
  6521  004BEE  C011  F02A         	movff	?___flmul,scalbnf@x
  6522  004BF2  C012  F02B         	movff	?___flmul+1,scalbnf@x+1
  6523  004BF6  C013  F02C         	movff	?___flmul+2,scalbnf@x+2
  6524  004BFA  C014  F02D         	movff	?___flmul+3,scalbnf@x+3
  6525  004BFE  C02A  F02A         	movff	scalbnf@x,?_scalbnf
  6526  004C02  C02B  F02B         	movff	scalbnf@x+1,?_scalbnf+1
  6527  004C06  C02C  F02C         	movff	scalbnf@x+2,?_scalbnf+2
  6528  004C0A  C02D  F02D         	movff	scalbnf@x+3,?_scalbnf+3
  6529  004C0E  0012               	return		;funcret
  6530  004C10                     __end_of_scalbnf:
  6531                           	callstack 0
  6532                           
  6533 ;; *************** function ___flmul *****************
  6534 ;; Defined at:
  6535 ;;		line 8 in file "C:\Program Files\Microchip\xc8\v2.36\pic\sources\c99\common\sprcmul.c"
  6536 ;; Parameters:    Size  Location     Type
  6537 ;;  b               4   16[COMRAM] float 
  6538 ;;  a               4   20[COMRAM] float 
  6539 ;; Auto vars:     Size  Location     Type
  6540 ;;  prod            4   35[COMRAM] struct .
  6541 ;;  grs             4   29[COMRAM] unsigned long 
  6542 ;;  temp            2   39[COMRAM] struct .
  6543 ;;  bexp            1   34[COMRAM] unsigned char 
  6544 ;;  aexp            1   33[COMRAM] unsigned char 
  6545 ;;  sign            1   28[COMRAM] unsigned char 
  6546 ;; Return value:  Size  Location     Type
  6547 ;;                  4   16[COMRAM] unsigned char 
  6548 ;; Registers used:
  6549 ;;		wreg, status,2, status,0, prodl, prodh
  6550 ;; Tracked objects:
  6551 ;;		On entry : 0/0
  6552 ;;		On exit  : 0/0
  6553 ;;		Unchanged: 0/0
  6554 ;; Data sizes:     COMRAM   BANK0   BANK1   BANK2   BANK3   BANK4   BANK5   BANK6   BANK7
  6555 ;;      Params:         8       0       0       0       0       0       0       0       0
  6556 ;;      Locals:        13       0       0       0       0       0       0       0       0
  6557 ;;      Temps:          4       0       0       0       0       0       0       0       0
  6558 ;;      Totals:        25       0       0       0       0       0       0       0       0
  6559 ;;Total ram usage:       25 bytes
  6560 ;; Hardware stack levels used: 1
  6561 ;; This function calls:
  6562 ;;		Nothing
  6563 ;; This function is called by:
  6564 ;;		_powf
  6565 ;;		_scalbnf
  6566 ;;		_sqrtf
  6567 ;; This function uses a non-reentrant model
  6568 ;;
  6569                           
  6570                           	psect	text7
  6571  003F74                     __ptext7:
  6572                           	callstack 0
  6573  003F74                     ___flmul:
  6574                           	callstack 27
  6575  003F74  5014               	movf	(___flmul@b+3)^0,w,c
  6576  003F76  0B80               	andlw	128
  6577  003F78  6E1D               	movwf	___flmul@sign^0,c
  6578  003F7A  5014               	movf	(___flmul@b+3)^0,w,c
  6579  003F7C  2414               	addwf	(___flmul@b+3)^0,w,c
  6580  003F7E  6E23               	movwf	___flmul@bexp^0,c
  6581  003F80  AE13               	btfss	(___flmul@b+2)^0,7,c
  6582  003F82  EFC5  F01F         	goto	u2561
  6583  003F86  EFC7  F01F         	goto	u2560
  6584  003F8A                     u2561:
  6585  003F8A  EFC8  F01F         	goto	l2727
  6586  003F8E                     u2560:
  6587  003F8E  8023               	bsf	___flmul@bexp^0,0,c
  6588  003F90                     l2727:
  6589  003F90  5023               	movf	___flmul@bexp^0,w,c
  6590  003F92  B4D8               	btfsc	status,2,c
  6591  003F94  EFCE  F01F         	goto	u2571
  6592  003F98  EFD0  F01F         	goto	u2570
  6593  003F9C                     u2571:
  6594  003F9C  EFE3  F01F         	goto	l2735
  6595  003FA0                     u2570:
  6596  003FA0  2823               	incf	___flmul@bexp^0,w,c
  6597  003FA2  A4D8               	btfss	status,2,c
  6598  003FA4  EFD6  F01F         	goto	u2581
  6599  003FA8  EFD8  F01F         	goto	u2580
  6600  003FAC                     u2581:
  6601  003FAC  EFE0  F01F         	goto	l2733
  6602  003FB0                     u2580:
  6603  003FB0  0E00               	movlw	0
  6604  003FB2  6E11               	movwf	___flmul@b^0,c
  6605  003FB4  0E00               	movlw	0
  6606  003FB6  6E12               	movwf	(___flmul@b+1)^0,c
  6607  003FB8  0E00               	movlw	0
  6608  003FBA  6E13               	movwf	(___flmul@b+2)^0,c
  6609  003FBC  0E00               	movlw	0
  6610  003FBE  6E14               	movwf	(___flmul@b+3)^0,c
  6611  003FC0                     l2733:
  6612  003FC0  8E13               	bsf	(___flmul@b+2)^0,7,c
  6613  003FC2  EFEB  F01F         	goto	l2737
  6614  003FC6                     l2735:
  6615  003FC6  0E00               	movlw	0
  6616  003FC8  6E11               	movwf	___flmul@b^0,c
  6617  003FCA  0E00               	movlw	0
  6618  003FCC  6E12               	movwf	(___flmul@b+1)^0,c
  6619  003FCE  0E00               	movlw	0
  6620  003FD0  6E13               	movwf	(___flmul@b+2)^0,c
  6621  003FD2  0E00               	movlw	0
  6622  003FD4  6E14               	movwf	(___flmul@b+3)^0,c
  6623  003FD6                     l2737:
  6624  003FD6  5018               	movf	(___flmul@a+3)^0,w,c
  6625  003FD8  0B80               	andlw	128
  6626  003FDA  1A1D               	xorwf	___flmul@sign^0,f,c
  6627  003FDC  5018               	movf	(___flmul@a+3)^0,w,c
  6628  003FDE  2418               	addwf	(___flmul@a+3)^0,w,c
  6629  003FE0  6E22               	movwf	___flmul@aexp^0,c
  6630  003FE2  AE17               	btfss	(___flmul@a+2)^0,7,c
  6631  003FE4  EFF6  F01F         	goto	u2591
  6632  003FE8  EFF8  F01F         	goto	u2590
  6633  003FEC                     u2591:
  6634  003FEC  EFF9  F01F         	goto	l2745
  6635  003FF0                     u2590:
  6636  003FF0  8022               	bsf	___flmul@aexp^0,0,c
  6637  003FF2                     l2745:
  6638  003FF2  5022               	movf	___flmul@aexp^0,w,c
  6639  003FF4  B4D8               	btfsc	status,2,c
  6640  003FF6  EFFF  F01F         	goto	u2601
  6641  003FFA  EF01  F020         	goto	u2600
  6642  003FFE                     u2601:
  6643  003FFE  EF14  F020         	goto	l2753
  6644  004002                     u2600:
  6645  004002  2822               	incf	___flmul@aexp^0,w,c
  6646  004004  A4D8               	btfss	status,2,c
  6647  004006  EF07  F020         	goto	u2611
  6648  00400A  EF09  F020         	goto	u2610
  6649  00400E                     u2611:
  6650  00400E  EF11  F020         	goto	l2751
  6651  004012                     u2610:
  6652  004012  0E00               	movlw	0
  6653  004014  6E15               	movwf	___flmul@a^0,c
  6654  004016  0E00               	movlw	0
  6655  004018  6E16               	movwf	(___flmul@a+1)^0,c
  6656  00401A  0E00               	movlw	0
  6657  00401C  6E17               	movwf	(___flmul@a+2)^0,c
  6658  00401E  0E00               	movlw	0
  6659  004020  6E18               	movwf	(___flmul@a+3)^0,c
  6660  004022                     l2751:
  6661  004022  8E17               	bsf	(___flmul@a+2)^0,7,c
  6662  004024  EF1C  F020         	goto	l739
  6663  004028                     l2753:
  6664  004028  0E00               	movlw	0
  6665  00402A  6E15               	movwf	___flmul@a^0,c
  6666  00402C  0E00               	movlw	0
  6667  00402E  6E16               	movwf	(___flmul@a+1)^0,c
  6668  004030  0E00               	movlw	0
  6669  004032  6E17               	movwf	(___flmul@a+2)^0,c
  6670  004034  0E00               	movlw	0
  6671  004036  6E18               	movwf	(___flmul@a+3)^0,c
  6672  004038                     l739:
  6673  004038  5022               	movf	___flmul@aexp^0,w,c
  6674  00403A  B4D8               	btfsc	status,2,c
  6675  00403C  EF22  F020         	goto	u2621
  6676  004040  EF24  F020         	goto	u2620
  6677  004044                     u2621:
  6678  004044  EF2C  F020         	goto	l2757
  6679  004048                     u2620:
  6680  004048  5023               	movf	___flmul@bexp^0,w,c
  6681  00404A  A4D8               	btfss	status,2,c
  6682  00404C  EF2A  F020         	goto	u2631
  6683  004050  EF2C  F020         	goto	u2630
  6684  004054                     u2631:
  6685  004054  EF36  F020         	goto	l2761
  6686  004058                     u2630:
  6687  004058                     l2757:
  6688  004058  0E00               	movlw	0
  6689  00405A  6E11               	movwf	?___flmul^0,c
  6690  00405C  0E00               	movlw	0
  6691  00405E  6E12               	movwf	(?___flmul+1)^0,c
  6692  004060  0E00               	movlw	0
  6693  004062  6E13               	movwf	(?___flmul+2)^0,c
  6694  004064  0E00               	movlw	0
  6695  004066  6E14               	movwf	(?___flmul+3)^0,c
  6696  004068  EFCE  F021         	goto	l743
  6697  00406C                     l2761:
  6698  00406C  5017               	movf	(___flmul@a+2)^0,w,c
  6699  00406E  0211               	mulwf	___flmul@b^0,c
  6700  004070  CFF3 F028          	movff	prodl,___flmul@temp
  6701  004074  CFF4 F029          	movff	prodh,___flmul@temp+1
  6702  004078  5028               	movf	___flmul@temp^0,w,c
  6703  00407A  6E1E               	movwf	___flmul@grs^0,c
  6704  00407C  6A1F               	clrf	(___flmul@grs+1)^0,c
  6705  00407E  6A20               	clrf	(___flmul@grs+2)^0,c
  6706  004080  6A21               	clrf	(___flmul@grs+3)^0,c
  6707  004082  5029               	movf	(___flmul@temp+1)^0,w,c
  6708  004084  6E24               	movwf	___flmul@prod^0,c
  6709  004086  6A25               	clrf	(___flmul@prod+1)^0,c
  6710  004088  6A26               	clrf	(___flmul@prod+2)^0,c
  6711  00408A  6A27               	clrf	(___flmul@prod+3)^0,c
  6712  00408C  5016               	movf	(___flmul@a+1)^0,w,c
  6713  00408E  0212               	mulwf	(___flmul@b+1)^0,c
  6714  004090  CFF3 F028          	movff	prodl,___flmul@temp
  6715  004094  CFF4 F029          	movff	prodh,___flmul@temp+1
  6716  004098  5028               	movf	___flmul@temp^0,w,c
  6717  00409A  261E               	addwf	___flmul@grs^0,f,c
  6718  00409C  0E00               	movlw	0
  6719  00409E  221F               	addwfc	(___flmul@grs+1)^0,f,c
  6720  0040A0  2220               	addwfc	(___flmul@grs+2)^0,f,c
  6721  0040A2  2221               	addwfc	(___flmul@grs+3)^0,f,c
  6722  0040A4  5029               	movf	(___flmul@temp+1)^0,w,c
  6723  0040A6  2624               	addwf	___flmul@prod^0,f,c
  6724  0040A8  0E00               	movlw	0
  6725  0040AA  2225               	addwfc	(___flmul@prod+1)^0,f,c
  6726  0040AC  2226               	addwfc	(___flmul@prod+2)^0,f,c
  6727  0040AE  2227               	addwfc	(___flmul@prod+3)^0,f,c
  6728  0040B0  5015               	movf	___flmul@a^0,w,c
  6729  0040B2  0213               	mulwf	(___flmul@b+2)^0,c
  6730  0040B4  CFF3 F028          	movff	prodl,___flmul@temp
  6731  0040B8  CFF4 F029          	movff	prodh,___flmul@temp+1
  6732  0040BC  5028               	movf	___flmul@temp^0,w,c
  6733  0040BE  261E               	addwf	___flmul@grs^0,f,c
  6734  0040C0  0E00               	movlw	0
  6735  0040C2  221F               	addwfc	(___flmul@grs+1)^0,f,c
  6736  0040C4  2220               	addwfc	(___flmul@grs+2)^0,f,c
  6737  0040C6  2221               	addwfc	(___flmul@grs+3)^0,f,c
  6738  0040C8  5029               	movf	(___flmul@temp+1)^0,w,c
  6739  0040CA  2624               	addwf	___flmul@prod^0,f,c
  6740  0040CC  0E00               	movlw	0
  6741  0040CE  2225               	addwfc	(___flmul@prod+1)^0,f,c
  6742  0040D0  2226               	addwfc	(___flmul@prod+2)^0,f,c
  6743  0040D2  2227               	addwfc	(___flmul@prod+3)^0,f,c
  6744  0040D4  C020  F021         	movff	___flmul@grs+2,___flmul@grs+3
  6745  0040D8  C01F  F020         	movff	___flmul@grs+1,___flmul@grs+2
  6746  0040DC  C01E  F01F         	movff	___flmul@grs,___flmul@grs+1
  6747  0040E0  6A1E               	clrf	___flmul@grs^0,c
  6748  0040E2  5015               	movf	___flmul@a^0,w,c
  6749  0040E4  0212               	mulwf	(___flmul@b+1)^0,c
  6750  0040E6  CFF3 F028          	movff	prodl,___flmul@temp
  6751  0040EA  CFF4 F029          	movff	prodh,___flmul@temp+1
  6752  0040EE  5028               	movf	___flmul@temp^0,w,c
  6753  0040F0  261E               	addwf	___flmul@grs^0,f,c
  6754  0040F2  5029               	movf	(___flmul@temp+1)^0,w,c
  6755  0040F4  221F               	addwfc	(___flmul@grs+1)^0,f,c
  6756  0040F6  0E00               	movlw	0
  6757  0040F8  2220               	addwfc	(___flmul@grs+2)^0,f,c
  6758  0040FA  0E00               	movlw	0
  6759  0040FC  2221               	addwfc	(___flmul@grs+3)^0,f,c
  6760  0040FE  5016               	movf	(___flmul@a+1)^0,w,c
  6761  004100  0211               	mulwf	___flmul@b^0,c
  6762  004102  CFF3 F028          	movff	prodl,___flmul@temp
  6763  004106  CFF4 F029          	movff	prodh,___flmul@temp+1
  6764  00410A  5028               	movf	___flmul@temp^0,w,c
  6765  00410C  261E               	addwf	___flmul@grs^0,f,c
  6766  00410E  5029               	movf	(___flmul@temp+1)^0,w,c
  6767  004110  221F               	addwfc	(___flmul@grs+1)^0,f,c
  6768  004112  0E00               	movlw	0
  6769  004114  2220               	addwfc	(___flmul@grs+2)^0,f,c
  6770  004116  0E00               	movlw	0
  6771  004118  2221               	addwfc	(___flmul@grs+3)^0,f,c
  6772  00411A  C020  F021         	movff	___flmul@grs+2,___flmul@grs+3
  6773  00411E  C01F  F020         	movff	___flmul@grs+1,___flmul@grs+2
  6774  004122  C01E  F01F         	movff	___flmul@grs,___flmul@grs+1
  6775  004126  6A1E               	clrf	___flmul@grs^0,c
  6776  004128  5015               	movf	___flmul@a^0,w,c
  6777  00412A  0211               	mulwf	___flmul@b^0,c
  6778  00412C  CFF3 F028          	movff	prodl,___flmul@temp
  6779  004130  CFF4 F029          	movff	prodh,___flmul@temp+1
  6780  004134  5028               	movf	___flmul@temp^0,w,c
  6781  004136  261E               	addwf	___flmul@grs^0,f,c
  6782  004138  5029               	movf	(___flmul@temp+1)^0,w,c
  6783  00413A  221F               	addwfc	(___flmul@grs+1)^0,f,c
  6784  00413C  0E00               	movlw	0
  6785  00413E  2220               	addwfc	(___flmul@grs+2)^0,f,c
  6786  004140  0E00               	movlw	0
  6787  004142  2221               	addwfc	(___flmul@grs+3)^0,f,c
  6788  004144  5017               	movf	(___flmul@a+2)^0,w,c
  6789  004146  0212               	mulwf	(___flmul@b+1)^0,c
  6790  004148  CFF3 F028          	movff	prodl,___flmul@temp
  6791  00414C  CFF4 F029          	movff	prodh,___flmul@temp+1
  6792  004150  5028               	movf	___flmul@temp^0,w,c
  6793  004152  2624               	addwf	___flmul@prod^0,f,c
  6794  004154  5029               	movf	(___flmul@temp+1)^0,w,c
  6795  004156  2225               	addwfc	(___flmul@prod+1)^0,f,c
  6796  004158  0E00               	movlw	0
  6797  00415A  2226               	addwfc	(___flmul@prod+2)^0,f,c
  6798  00415C  0E00               	movlw	0
  6799  00415E  2227               	addwfc	(___flmul@prod+3)^0,f,c
  6800  004160  5016               	movf	(___flmul@a+1)^0,w,c
  6801  004162  0213               	mulwf	(___flmul@b+2)^0,c
  6802  004164  CFF3 F028          	movff	prodl,___flmul@temp
  6803  004168  CFF4 F029          	movff	prodh,___flmul@temp+1
  6804  00416C  5028               	movf	___flmul@temp^0,w,c
  6805  00416E  2624               	addwf	___flmul@prod^0,f,c
  6806  004170  5029               	movf	(___flmul@temp+1)^0,w,c
  6807  004172  2225               	addwfc	(___flmul@prod+1)^0,f,c
  6808  004174  0E00               	movlw	0
  6809  004176  2226               	addwfc	(___flmul@prod+2)^0,f,c
  6810  004178  0E00               	movlw	0
  6811  00417A  2227               	addwfc	(___flmul@prod+3)^0,f,c
  6812  00417C  5017               	movf	(___flmul@a+2)^0,w,c
  6813  00417E  0213               	mulwf	(___flmul@b+2)^0,c
  6814  004180  CFF3 F028          	movff	prodl,___flmul@temp
  6815  004184  CFF4 F029          	movff	prodh,___flmul@temp+1
  6816  004188  5028               	movf	___flmul@temp^0,w,c
  6817  00418A  6E19               	movwf	??___flmul^0,c
  6818  00418C  5029               	movf	(___flmul@temp+1)^0,w,c
  6819  00418E  6E1A               	movwf	(??___flmul+1)^0,c
  6820  004190  6A1B               	clrf	(??___flmul+2)^0,c
  6821  004192  6A1C               	clrf	(??___flmul+3)^0,c
  6822  004194  C01B  F01C         	movff	??___flmul+2,??___flmul+3
  6823  004198  C01A  F01B         	movff	??___flmul+1,??___flmul+2
  6824  00419C  C019  F01A         	movff	??___flmul,??___flmul+1
  6825  0041A0  6A19               	clrf	??___flmul^0,c
  6826  0041A2  5019               	movf	??___flmul^0,w,c
  6827  0041A4  2624               	addwf	___flmul@prod^0,f,c
  6828  0041A6  501A               	movf	(??___flmul+1)^0,w,c
  6829  0041A8  2225               	addwfc	(___flmul@prod+1)^0,f,c
  6830  0041AA  501B               	movf	(??___flmul+2)^0,w,c
  6831  0041AC  2226               	addwfc	(___flmul@prod+2)^0,f,c
  6832  0041AE  501C               	movf	(??___flmul+3)^0,w,c
  6833  0041B0  2227               	addwfc	(___flmul@prod+3)^0,f,c
  6834  0041B2  C01E  F019         	movff	___flmul@grs,??___flmul
  6835  0041B6  C01F  F01A         	movff	___flmul@grs+1,??___flmul+1
  6836  0041BA  C020  F01B         	movff	___flmul@grs+2,??___flmul+2
  6837  0041BE  C021  F01C         	movff	___flmul@grs+3,??___flmul+3
  6838  0041C2  0E19               	movlw	25
  6839  0041C4  EFE9  F020         	goto	u2640
  6840  0041C8                     u2645:
  6841  0041C8  90D8               	bcf	status,0,c
  6842  0041CA  321C               	rrcf	(??___flmul+3)^0,f,c
  6843  0041CC  321B               	rrcf	(??___flmul+2)^0,f,c
  6844  0041CE  321A               	rrcf	(??___flmul+1)^0,f,c
  6845  0041D0  3219               	rrcf	??___flmul^0,f,c
  6846  0041D2                     u2640:
  6847  0041D2  2EE8               	decfsz	wreg,f,c
  6848  0041D4  EFE4  F020         	goto	u2645
  6849  0041D8  5019               	movf	??___flmul^0,w,c
  6850  0041DA  2624               	addwf	___flmul@prod^0,f,c
  6851  0041DC  501A               	movf	(??___flmul+1)^0,w,c
  6852  0041DE  2225               	addwfc	(___flmul@prod+1)^0,f,c
  6853  0041E0  501B               	movf	(??___flmul+2)^0,w,c
  6854  0041E2  2226               	addwfc	(___flmul@prod+2)^0,f,c
  6855  0041E4  501C               	movf	(??___flmul+3)^0,w,c
  6856  0041E6  2227               	addwfc	(___flmul@prod+3)^0,f,c
  6857  0041E8  C020  F021         	movff	___flmul@grs+2,___flmul@grs+3
  6858  0041EC  C01F  F020         	movff	___flmul@grs+1,___flmul@grs+2
  6859  0041F0  C01E  F01F         	movff	___flmul@grs,___flmul@grs+1
  6860  0041F4  6A1E               	clrf	___flmul@grs^0,c
  6861  0041F6  5022               	movf	___flmul@aexp^0,w,c
  6862  0041F8  C023  F019         	movff	___flmul@bexp,??___flmul
  6863  0041FC  6A1A               	clrf	(??___flmul+1)^0,c
  6864  0041FE  2619               	addwf	??___flmul^0,f,c
  6865  004200  0E00               	movlw	0
  6866  004202  221A               	addwfc	(??___flmul+1)^0,f,c
  6867  004204  0E82               	movlw	130
  6868  004206  2419               	addwf	??___flmul^0,w,c
  6869  004208  6E28               	movwf	___flmul@temp^0,c
  6870  00420A  0EFF               	movlw	255
  6871  00420C  201A               	addwfc	(??___flmul+1)^0,w,c
  6872  00420E  6E29               	movwf	(___flmul@temp+1)^0,c
  6873  004210  EF1F  F021         	goto	l2809
  6874  004214                     l2803:
  6875  004214  90D8               	bcf	status,0,c
  6876  004216  3624               	rlcf	___flmul@prod^0,f,c
  6877  004218  3625               	rlcf	(___flmul@prod+1)^0,f,c
  6878  00421A  3626               	rlcf	(___flmul@prod+2)^0,f,c
  6879  00421C  3627               	rlcf	(___flmul@prod+3)^0,f,c
  6880  00421E  AE21               	btfss	(___flmul@grs+3)^0,7,c
  6881  004220  EF14  F021         	goto	u2651
  6882  004224  EF16  F021         	goto	u2650
  6883  004228                     u2651:
  6884  004228  EF17  F021         	goto	l746
  6885  00422C                     u2650:
  6886  00422C  8024               	bsf	___flmul@prod^0,0,c
  6887  00422E                     l746:
  6888  00422E  90D8               	bcf	status,0,c
  6889  004230  361E               	rlcf	___flmul@grs^0,f,c
  6890  004232  361F               	rlcf	(___flmul@grs+1)^0,f,c
  6891  004234  3620               	rlcf	(___flmul@grs+2)^0,f,c
  6892  004236  3621               	rlcf	(___flmul@grs+3)^0,f,c
  6893  004238  0628               	decf	___flmul@temp^0,f,c
  6894  00423A  A0D8               	btfss	status,0,c
  6895  00423C  0629               	decf	(___flmul@temp+1)^0,f,c
  6896  00423E                     l2809:
  6897  00423E  AE26               	btfss	(___flmul@prod+2)^0,7,c
  6898  004240  EF24  F021         	goto	u2661
  6899  004244  EF26  F021         	goto	u2660
  6900  004248                     u2661:
  6901  004248  EF0A  F021         	goto	l2803
  6902  00424C                     u2660:
  6903  00424C  0E00               	movlw	0
  6904  00424E  6E22               	movwf	___flmul@aexp^0,c
  6905  004250  AE21               	btfss	(___flmul@grs+3)^0,7,c
  6906  004252  EF2D  F021         	goto	u2671
  6907  004256  EF2F  F021         	goto	u2670
  6908  00425A                     u2671:
  6909  00425A  EF53  F021         	goto	l748
  6910  00425E                     u2670:
  6911  00425E  0EFF               	movlw	255
  6912  004260  141E               	andwf	___flmul@grs^0,w,c
  6913  004262  6E19               	movwf	??___flmul^0,c
  6914  004264  0EFF               	movlw	255
  6915  004266  141F               	andwf	(___flmul@grs+1)^0,w,c
  6916  004268  6E1A               	movwf	(??___flmul+1)^0,c
  6917  00426A  0EFF               	movlw	255
  6918  00426C  1420               	andwf	(___flmul@grs+2)^0,w,c
  6919  00426E  6E1B               	movwf	(??___flmul+2)^0,c
  6920  004270  0E7F               	movlw	127
  6921  004272  1421               	andwf	(___flmul@grs+3)^0,w,c
  6922  004274  6E1C               	movwf	(??___flmul+3)^0,c
  6923  004276  5019               	movf	??___flmul^0,w,c
  6924  004278  101A               	iorwf	(??___flmul+1)^0,w,c
  6925  00427A  101B               	iorwf	(??___flmul+2)^0,w,c
  6926  00427C  101C               	iorwf	(??___flmul+3)^0,w,c
  6927  00427E  B4D8               	btfsc	status,2,c
  6928  004280  EF44  F021         	goto	u2681
  6929  004284  EF46  F021         	goto	u2680
  6930  004288                     u2681:
  6931  004288  EF4A  F021         	goto	l749
  6932  00428C                     u2680:
  6933  00428C                     l2817:
  6934  00428C  0E01               	movlw	1
  6935  00428E  6E22               	movwf	___flmul@aexp^0,c
  6936  004290  EF53  F021         	goto	l748
  6937  004294                     l749:
  6938  004294  A024               	btfss	___flmul@prod^0,0,c
  6939  004296  EF4F  F021         	goto	u2691
  6940  00429A  EF51  F021         	goto	u2690
  6941  00429E                     u2691:
  6942  00429E  EF53  F021         	goto	l748
  6943  0042A2                     u2690:
  6944  0042A2  EF46  F021         	goto	l2817
  6945  0042A6                     l748:
  6946  0042A6  5022               	movf	___flmul@aexp^0,w,c
  6947  0042A8  B4D8               	btfsc	status,2,c
  6948  0042AA  EF59  F021         	goto	u2701
  6949  0042AE  EF5B  F021         	goto	u2700
  6950  0042B2                     u2701:
  6951  0042B2  EF7F  F021         	goto	l2829
  6952  0042B6                     u2700:
  6953  0042B6  0E01               	movlw	1
  6954  0042B8  2624               	addwf	___flmul@prod^0,f,c
  6955  0042BA  0E00               	movlw	0
  6956  0042BC  2225               	addwfc	(___flmul@prod+1)^0,f,c
  6957  0042BE  2226               	addwfc	(___flmul@prod+2)^0,f,c
  6958  0042C0  2227               	addwfc	(___flmul@prod+3)^0,f,c
  6959  0042C2  A027               	btfss	(___flmul@prod+3)^0,0,c
  6960  0042C4  EF66  F021         	goto	u2711
  6961  0042C8  EF68  F021         	goto	u2710
  6962  0042CC                     u2711:
  6963  0042CC  EF7F  F021         	goto	l2829
  6964  0042D0                     u2710:
  6965  0042D0  C024  F019         	movff	___flmul@prod,??___flmul
  6966  0042D4  C025  F01A         	movff	___flmul@prod+1,??___flmul+1
  6967  0042D8  C026  F01B         	movff	___flmul@prod+2,??___flmul+2
  6968  0042DC  C027  F01C         	movff	___flmul@prod+3,??___flmul+3
  6969  0042E0  341C               	rlcf	(??___flmul+3)^0,w,c
  6970  0042E2  321C               	rrcf	(??___flmul+3)^0,f,c
  6971  0042E4  321B               	rrcf	(??___flmul+2)^0,f,c
  6972  0042E6  321A               	rrcf	(??___flmul+1)^0,f,c
  6973  0042E8  3219               	rrcf	??___flmul^0,f,c
  6974  0042EA  C019  F024         	movff	??___flmul,___flmul@prod
  6975  0042EE  C01A  F025         	movff	??___flmul+1,___flmul@prod+1
  6976  0042F2  C01B  F026         	movff	??___flmul+2,___flmul@prod+2
  6977  0042F6  C01C  F027         	movff	??___flmul+3,___flmul@prod+3
  6978  0042FA  4A28               	infsnz	___flmul@temp^0,f,c
  6979  0042FC  2A29               	incf	(___flmul@temp+1)^0,f,c
  6980  0042FE                     l2829:
  6981  0042FE  BE29               	btfsc	(___flmul@temp+1)^0,7,c
  6982  004300  EF8A  F021         	goto	u2721
  6983  004304  5029               	movf	(___flmul@temp+1)^0,w,c
  6984  004306  E108               	bnz	u2720
  6985  004308  2828               	incf	___flmul@temp^0,w,c
  6986  00430A  A0D8               	btfss	status,0,c
  6987  00430C  EF8A  F021         	goto	u2721
  6988  004310  EF8C  F021         	goto	u2720
  6989  004314                     u2721:
  6990  004314  EF96  F021         	goto	l2833
  6991  004318                     u2720:
  6992  004318  0E00               	movlw	0
  6993  00431A  6E24               	movwf	___flmul@prod^0,c
  6994  00431C  0E00               	movlw	0
  6995  00431E  6E25               	movwf	(___flmul@prod+1)^0,c
  6996  004320  0E80               	movlw	128
  6997  004322  6E26               	movwf	(___flmul@prod+2)^0,c
  6998  004324  0E7F               	movlw	127
  6999  004326  6E27               	movwf	(___flmul@prod+3)^0,c
  7000  004328  EFC4  F021         	goto	l2845
  7001  00432C                     l2833:
  7002  00432C  BE29               	btfsc	(___flmul@temp+1)^0,7,c
  7003  00432E  EFA3  F021         	goto	u2730
  7004  004332  5029               	movf	(___flmul@temp+1)^0,w,c
  7005  004334  E106               	bnz	u2731
  7006  004336  0428               	decf	___flmul@temp^0,w,c
  7007  004338  B0D8               	btfsc	status,0,c
  7008  00433A  EFA1  F021         	goto	u2731
  7009  00433E  EFA3  F021         	goto	u2730
  7010  004342                     u2731:
  7011  004342  EFAF  F021         	goto	l756
  7012  004346                     u2730:
  7013  004346  0E00               	movlw	0
  7014  004348  6E24               	movwf	___flmul@prod^0,c
  7015  00434A  0E00               	movlw	0
  7016  00434C  6E25               	movwf	(___flmul@prod+1)^0,c
  7017  00434E  0E00               	movlw	0
  7018  004350  6E26               	movwf	(___flmul@prod+2)^0,c
  7019  004352  0E00               	movlw	0
  7020  004354  6E27               	movwf	(___flmul@prod+3)^0,c
  7021  004356  0E00               	movlw	0
  7022  004358  6E1D               	movwf	___flmul@sign^0,c
  7023  00435A  EFC4  F021         	goto	l2845
  7024  00435E                     l756:
  7025  00435E  C028  F023         	movff	___flmul@temp,___flmul@bexp
  7026  004362  0EFF               	movlw	255
  7027  004364  1624               	andwf	___flmul@prod^0,f,c
  7028  004366  0EFF               	movlw	255
  7029  004368  1625               	andwf	(___flmul@prod+1)^0,f,c
  7030  00436A  0E7F               	movlw	127
  7031  00436C  1626               	andwf	(___flmul@prod+2)^0,f,c
  7032  00436E  0E00               	movlw	0
  7033  004370  1627               	andwf	(___flmul@prod+3)^0,f,c
  7034  004372  A023               	btfss	___flmul@bexp^0,0,c
  7035  004374  EFBE  F021         	goto	u2741
  7036  004378  EFC0  F021         	goto	u2740
  7037  00437C                     u2741:
  7038  00437C  EFC1  F021         	goto	l2843
  7039  004380                     u2740:
  7040  004380  8E26               	bsf	(___flmul@prod+2)^0,7,c
  7041  004382                     l2843:
  7042  004382  90D8               	bcf	status,0,c
  7043  004384  3023               	rrcf	___flmul@bexp^0,w,c
  7044  004386  6E27               	movwf	(___flmul@prod+3)^0,c
  7045  004388                     l2845:
  7046  004388  501D               	movf	___flmul@sign^0,w,c
  7047  00438A  1227               	iorwf	(___flmul@prod+3)^0,f,c
  7048  00438C  C024  F011         	movff	___flmul@prod,?___flmul
  7049  004390  C025  F012         	movff	___flmul@prod+1,?___flmul+1
  7050  004394  C026  F013         	movff	___flmul@prod+2,?___flmul+2
  7051  004398  C027  F014         	movff	___flmul@prod+3,?___flmul+3
  7052  00439C                     l743:
  7053  00439C  0012               	return		;funcret
  7054  00439E                     __end_of___flmul:
  7055                           	callstack 0
  7056                           
  7057 ;; *************** function _fabsf *****************
  7058 ;; Defined at:
  7059 ;;		line 4 in file "C:\Program Files\Microchip\xc8\v2.36\pic\sources\c99\common\fabsf.c"
  7060 ;; Parameters:    Size  Location     Type
  7061 ;;  x               4    0[COMRAM] float 
  7062 ;; Auto vars:     Size  Location     Type
  7063 ;;  u               4    4[COMRAM] struct .
  7064 ;; Return value:  Size  Location     Type
  7065 ;;                  4    0[COMRAM] float 
  7066 ;; Registers used:
  7067 ;;		status,2, status,0
  7068 ;; Tracked objects:
  7069 ;;		On entry : 0/0
  7070 ;;		On exit  : 0/0
  7071 ;;		Unchanged: 0/0
  7072 ;; Data sizes:     COMRAM   BANK0   BANK1   BANK2   BANK3   BANK4   BANK5   BANK6   BANK7
  7073 ;;      Params:         4       0       0       0       0       0       0       0       0
  7074 ;;      Locals:         4       0       0       0       0       0       0       0       0
  7075 ;;      Temps:          0       0       0       0       0       0       0       0       0
  7076 ;;      Totals:         8       0       0       0       0       0       0       0       0
  7077 ;;Total ram usage:        8 bytes
  7078 ;; Hardware stack levels used: 1
  7079 ;; This function calls:
  7080 ;;		Nothing
  7081 ;; This function is called by:
  7082 ;;		_powf
  7083 ;; This function uses a non-reentrant model
  7084 ;;
  7085                           
  7086                           	psect	text8
  7087  00524E                     __ptext8:
  7088                           	callstack 0
  7089  00524E                     _fabsf:
  7090                           	callstack 28
  7091  00524E  C0A2  F005         	movff	fabsf@F465,fabsf@u
  7092  005252  C0A3  F006         	movff	fabsf@F465+1,fabsf@u+1
  7093  005256  C0A4  F007         	movff	fabsf@F465+2,fabsf@u+2
  7094  00525A  C0A5  F008         	movff	fabsf@F465+3,fabsf@u+3
  7095  00525E  C001  F005         	movff	fabsf@x,fabsf@u
  7096  005262  C002  F006         	movff	fabsf@x+1,fabsf@u+1
  7097  005266  C003  F007         	movff	fabsf@x+2,fabsf@u+2
  7098  00526A  C004  F008         	movff	fabsf@x+3,fabsf@u+3
  7099  00526E  9E08               	bcf	(fabsf@u+3)^0,7,c
  7100  005270  C005  F001         	movff	fabsf@u,?_fabsf
  7101  005274  C006  F002         	movff	fabsf@u+1,?_fabsf+1
  7102  005278  C007  F003         	movff	fabsf@u+2,?_fabsf+2
  7103  00527C  C008  F004         	movff	fabsf@u+3,?_fabsf+3
  7104  005280  0012               	return		;funcret
  7105  005282                     __end_of_fabsf:
  7106                           	callstack 0
  7107                           
  7108 ;; *************** function ___xxtofl *****************
  7109 ;; Defined at:
  7110 ;;		line 10 in file "C:\Program Files\Microchip\xc8\v2.36\pic\sources\c99\common\xxtofl.c"
  7111 ;; Parameters:    Size  Location     Type
  7112 ;;  sign            1    wreg     unsigned char 
  7113 ;;  val             4    0[COMRAM] long 
  7114 ;; Auto vars:     Size  Location     Type
  7115 ;;  sign            1    8[COMRAM] unsigned char 
  7116 ;;  arg             4   10[COMRAM] unsigned long 
  7117 ;;  exp             1    9[COMRAM] unsigned char 
  7118 ;; Return value:  Size  Location     Type
  7119 ;;                  4    0[COMRAM] unsigned char 
  7120 ;; Registers used:
  7121 ;;		wreg, status,2, status,0
  7122 ;; Tracked objects:
  7123 ;;		On entry : 0/0
  7124 ;;		On exit  : 0/0
  7125 ;;		Unchanged: 0/0
  7126 ;; Data sizes:     COMRAM   BANK0   BANK1   BANK2   BANK3   BANK4   BANK5   BANK6   BANK7
  7127 ;;      Params:         4       0       0       0       0       0       0       0       0
  7128 ;;      Locals:         6       0       0       0       0       0       0       0       0
  7129 ;;      Temps:          4       0       0       0       0       0       0       0       0
  7130 ;;      Totals:        14       0       0       0       0       0       0       0       0
  7131 ;;Total ram usage:       14 bytes
  7132 ;; Hardware stack levels used: 1
  7133 ;; This function calls:
  7134 ;;		Nothing
  7135 ;; This function is called by:
  7136 ;;		_send_to_disp
  7137 ;;		_powf
  7138 ;; This function uses a non-reentrant model
  7139 ;;
  7140                           
  7141                           	psect	text9
  7142  004C10                     __ptext9:
  7143                           	callstack 0
  7144  004C10                     ___xxtofl:
  7145                           	callstack 28
  7146                           
  7147                           ;incstack = 0
  7148                           ;___xxtofl@sign stored from wreg
  7149  004C10  6E09               	movwf	___xxtofl@sign^0,c
  7150  004C12  5009               	movf	___xxtofl@sign^0,w,c
  7151  004C14  B4D8               	btfsc	status,2,c
  7152  004C16  EF0F  F026         	goto	u3041
  7153  004C1A  EF11  F026         	goto	u3040
  7154  004C1E                     u3041:
  7155  004C1E  EF33  F026         	goto	l780
  7156  004C22                     u3040:
  7157  004C22  BE04               	btfsc	(___xxtofl@val+3)^0,7,c
  7158  004C24  EF18  F026         	goto	u3050
  7159  004C28  EF16  F026         	goto	u3051
  7160  004C2C                     u3051:
  7161  004C2C  EF33  F026         	goto	l780
  7162  004C30                     u3050:
  7163  004C30  C001  F005         	movff	___xxtofl@val,??___xxtofl
  7164  004C34  C002  F006         	movff	___xxtofl@val+1,??___xxtofl+1
  7165  004C38  C003  F007         	movff	___xxtofl@val+2,??___xxtofl+2
  7166  004C3C  C004  F008         	movff	___xxtofl@val+3,??___xxtofl+3
  7167  004C40  1E05               	comf	??___xxtofl^0,f,c
  7168  004C42  1E06               	comf	(??___xxtofl+1)^0,f,c
  7169  004C44  1E07               	comf	(??___xxtofl+2)^0,f,c
  7170  004C46  1E08               	comf	(??___xxtofl+3)^0,f,c
  7171  004C48  2A05               	incf	??___xxtofl^0,f,c
  7172  004C4A  0E00               	movlw	0
  7173  004C4C  2206               	addwfc	(??___xxtofl+1)^0,f,c
  7174  004C4E  2207               	addwfc	(??___xxtofl+2)^0,f,c
  7175  004C50  2208               	addwfc	(??___xxtofl+3)^0,f,c
  7176  004C52  C005  F00B         	movff	??___xxtofl,___xxtofl@arg
  7177  004C56  C006  F00C         	movff	??___xxtofl+1,___xxtofl@arg+1
  7178  004C5A  C007  F00D         	movff	??___xxtofl+2,___xxtofl@arg+2
  7179  004C5E  C008  F00E         	movff	??___xxtofl+3,___xxtofl@arg+3
  7180  004C62  EF3B  F026         	goto	l3037
  7181  004C66                     l780:
  7182  004C66  C001  F00B         	movff	___xxtofl@val,___xxtofl@arg
  7183  004C6A  C002  F00C         	movff	___xxtofl@val+1,___xxtofl@arg+1
  7184  004C6E  C003  F00D         	movff	___xxtofl@val+2,___xxtofl@arg+2
  7185  004C72  C004  F00E         	movff	___xxtofl@val+3,___xxtofl@arg+3
  7186  004C76                     l3037:
  7187  004C76  5001               	movf	___xxtofl@val^0,w,c
  7188  004C78  1002               	iorwf	(___xxtofl@val+1)^0,w,c
  7189  004C7A  1003               	iorwf	(___xxtofl@val+2)^0,w,c
  7190  004C7C  1004               	iorwf	(___xxtofl@val+3)^0,w,c
  7191  004C7E  A4D8               	btfss	status,2,c
  7192  004C80  EF44  F026         	goto	u3061
  7193  004C84  EF46  F026         	goto	u3060
  7194  004C88                     u3061:
  7195  004C88  EF50  F026         	goto	l3043
  7196  004C8C                     u3060:
  7197  004C8C  0E00               	movlw	0
  7198  004C8E  6E01               	movwf	?___xxtofl^0,c
  7199  004C90  0E00               	movlw	0
  7200  004C92  6E02               	movwf	(?___xxtofl+1)^0,c
  7201  004C94  0E00               	movlw	0
  7202  004C96  6E03               	movwf	(?___xxtofl+2)^0,c
  7203  004C98  0E00               	movlw	0
  7204  004C9A  6E04               	movwf	(?___xxtofl+3)^0,c
  7205  004C9C  EFE1  F026         	goto	l783
  7206  004CA0                     l3043:
  7207  004CA0  0E96               	movlw	150
  7208  004CA2  6E0A               	movwf	___xxtofl@exp^0,c
  7209  004CA4  EF5A  F026         	goto	l3047
  7210  004CA8                     l3045:
  7211  004CA8  2A0A               	incf	___xxtofl@exp^0,f,c
  7212  004CAA  90D8               	bcf	status,0,c
  7213  004CAC  320E               	rrcf	(___xxtofl@arg+3)^0,f,c
  7214  004CAE  320D               	rrcf	(___xxtofl@arg+2)^0,f,c
  7215  004CB0  320C               	rrcf	(___xxtofl@arg+1)^0,f,c
  7216  004CB2  320B               	rrcf	___xxtofl@arg^0,f,c
  7217  004CB4                     l3047:
  7218  004CB4  0E00               	movlw	0
  7219  004CB6  140B               	andwf	___xxtofl@arg^0,w,c
  7220  004CB8  6E05               	movwf	??___xxtofl^0,c
  7221  004CBA  0E00               	movlw	0
  7222  004CBC  140C               	andwf	(___xxtofl@arg+1)^0,w,c
  7223  004CBE  6E06               	movwf	(??___xxtofl+1)^0,c
  7224  004CC0  0E00               	movlw	0
  7225  004CC2  140D               	andwf	(___xxtofl@arg+2)^0,w,c
  7226  004CC4  6E07               	movwf	(??___xxtofl+2)^0,c
  7227  004CC6  0EFE               	movlw	254
  7228  004CC8  140E               	andwf	(___xxtofl@arg+3)^0,w,c
  7229  004CCA  6E08               	movwf	(??___xxtofl+3)^0,c
  7230  004CCC  5005               	movf	??___xxtofl^0,w,c
  7231  004CCE  1006               	iorwf	(??___xxtofl+1)^0,w,c
  7232  004CD0  1007               	iorwf	(??___xxtofl+2)^0,w,c
  7233  004CD2  1008               	iorwf	(??___xxtofl+3)^0,w,c
  7234  004CD4  A4D8               	btfss	status,2,c
  7235  004CD6  EF6F  F026         	goto	u3071
  7236  004CDA  EF71  F026         	goto	u3070
  7237  004CDE                     u3071:
  7238  004CDE  EF54  F026         	goto	l3045
  7239  004CE2                     u3070:
  7240  004CE2  EF7F  F026         	goto	l787
  7241  004CE6                     l3049:
  7242  004CE6  2A0A               	incf	___xxtofl@exp^0,f,c
  7243  004CE8  0E01               	movlw	1
  7244  004CEA  260B               	addwf	___xxtofl@arg^0,f,c
  7245  004CEC  0E00               	movlw	0
  7246  004CEE  220C               	addwfc	(___xxtofl@arg+1)^0,f,c
  7247  004CF0  220D               	addwfc	(___xxtofl@arg+2)^0,f,c
  7248  004CF2  220E               	addwfc	(___xxtofl@arg+3)^0,f,c
  7249  004CF4  90D8               	bcf	status,0,c
  7250  004CF6  320E               	rrcf	(___xxtofl@arg+3)^0,f,c
  7251  004CF8  320D               	rrcf	(___xxtofl@arg+2)^0,f,c
  7252  004CFA  320C               	rrcf	(___xxtofl@arg+1)^0,f,c
  7253  004CFC  320B               	rrcf	___xxtofl@arg^0,f,c
  7254  004CFE                     l787:
  7255  004CFE  0E00               	movlw	0
  7256  004D00  140B               	andwf	___xxtofl@arg^0,w,c
  7257  004D02  6E05               	movwf	??___xxtofl^0,c
  7258  004D04  0E00               	movlw	0
  7259  004D06  140C               	andwf	(___xxtofl@arg+1)^0,w,c
  7260  004D08  6E06               	movwf	(??___xxtofl+1)^0,c
  7261  004D0A  0E00               	movlw	0
  7262  004D0C  140D               	andwf	(___xxtofl@arg+2)^0,w,c
  7263  004D0E  6E07               	movwf	(??___xxtofl+2)^0,c
  7264  004D10  0EFF               	movlw	255
  7265  004D12  140E               	andwf	(___xxtofl@arg+3)^0,w,c
  7266  004D14  6E08               	movwf	(??___xxtofl+3)^0,c
  7267  004D16  5005               	movf	??___xxtofl^0,w,c
  7268  004D18  1006               	iorwf	(??___xxtofl+1)^0,w,c
  7269  004D1A  1007               	iorwf	(??___xxtofl+2)^0,w,c
  7270  004D1C  1008               	iorwf	(??___xxtofl+3)^0,w,c
  7271  004D1E  A4D8               	btfss	status,2,c
  7272  004D20  EF94  F026         	goto	u3081
  7273  004D24  EF96  F026         	goto	u3080
  7274  004D28                     u3081:
  7275  004D28  EF73  F026         	goto	l3049
  7276  004D2C                     u3080:
  7277  004D2C  EF9E  F026         	goto	l3057
  7278  004D30                     l3055:
  7279  004D30  060A               	decf	___xxtofl@exp^0,f,c
  7280  004D32  90D8               	bcf	status,0,c
  7281  004D34  360B               	rlcf	___xxtofl@arg^0,f,c
  7282  004D36  360C               	rlcf	(___xxtofl@arg+1)^0,f,c
  7283  004D38  360D               	rlcf	(___xxtofl@arg+2)^0,f,c
  7284  004D3A  360E               	rlcf	(___xxtofl@arg+3)^0,f,c
  7285  004D3C                     l3057:
  7286  004D3C  BE0D               	btfsc	(___xxtofl@arg+2)^0,7,c
  7287  004D3E  EFA3  F026         	goto	u3091
  7288  004D42  EFA5  F026         	goto	u3090
  7289  004D46                     u3091:
  7290  004D46  EFAD  F026         	goto	l794
  7291  004D4A                     u3090:
  7292  004D4A  0E02               	movlw	2
  7293  004D4C  600A               	cpfslt	___xxtofl@exp^0,c
  7294  004D4E  EFAB  F026         	goto	u3101
  7295  004D52  EFAD  F026         	goto	u3100
  7296  004D56                     u3101:
  7297  004D56  EF98  F026         	goto	l3055
  7298  004D5A                     u3100:
  7299  004D5A                     l794:
  7300  004D5A  B00A               	btfsc	___xxtofl@exp^0,0,c
  7301  004D5C  EFB2  F026         	goto	u3111
  7302  004D60  EFB4  F026         	goto	u3110
  7303  004D64                     u3111:
  7304  004D64  EFB5  F026         	goto	l3063
  7305  004D68                     u3110:
  7306  004D68  9E0D               	bcf	(___xxtofl@arg+2)^0,7,c
  7307  004D6A                     l3063:
  7308  004D6A  90D8               	bcf	status,0,c
  7309  004D6C  320A               	rrcf	___xxtofl@exp^0,f,c
  7310  004D6E  C00A  F005         	movff	___xxtofl@exp,??___xxtofl
  7311  004D72  6A06               	clrf	(??___xxtofl+1)^0,c
  7312  004D74  6A07               	clrf	(??___xxtofl+2)^0,c
  7313  004D76  6A08               	clrf	(??___xxtofl+3)^0,c
  7314  004D78  C005  F008         	movff	??___xxtofl,??___xxtofl+3
  7315  004D7C  6A07               	clrf	(??___xxtofl+2)^0,c
  7316  004D7E  6A06               	clrf	(??___xxtofl+1)^0,c
  7317  004D80  6A05               	clrf	??___xxtofl^0,c
  7318  004D82  5005               	movf	??___xxtofl^0,w,c
  7319  004D84  120B               	iorwf	___xxtofl@arg^0,f,c
  7320  004D86  5006               	movf	(??___xxtofl+1)^0,w,c
  7321  004D88  120C               	iorwf	(___xxtofl@arg+1)^0,f,c
  7322  004D8A  5007               	movf	(??___xxtofl+2)^0,w,c
  7323  004D8C  120D               	iorwf	(___xxtofl@arg+2)^0,f,c
  7324  004D8E  5008               	movf	(??___xxtofl+3)^0,w,c
  7325  004D90  120E               	iorwf	(___xxtofl@arg+3)^0,f,c
  7326  004D92  5009               	movf	___xxtofl@sign^0,w,c
  7327  004D94  B4D8               	btfsc	status,2,c
  7328  004D96  EFCF  F026         	goto	u3121
  7329  004D9A  EFD1  F026         	goto	u3120
  7330  004D9E                     u3121:
  7331  004D9E  EFD9  F026         	goto	l3073
  7332  004DA2                     u3120:
  7333  004DA2  BE04               	btfsc	(___xxtofl@val+3)^0,7,c
  7334  004DA4  EFD8  F026         	goto	u3130
  7335  004DA8  EFD6  F026         	goto	u3131
  7336  004DAC                     u3131:
  7337  004DAC  EFD9  F026         	goto	l3073
  7338  004DB0                     u3130:
  7339  004DB0  8E0E               	bsf	(___xxtofl@arg+3)^0,7,c
  7340  004DB2                     l3073:
  7341  004DB2  C00B  F001         	movff	___xxtofl@arg,?___xxtofl
  7342  004DB6  C00C  F002         	movff	___xxtofl@arg+1,?___xxtofl+1
  7343  004DBA  C00D  F003         	movff	___xxtofl@arg+2,?___xxtofl+2
  7344  004DBE  C00E  F004         	movff	___xxtofl@arg+3,?___xxtofl+3
  7345  004DC2                     l783:
  7346  004DC2  0012               	return		;funcret
  7347  004DC4                     __end_of___xxtofl:
  7348                           	callstack 0
  7349                           
  7350 ;; *************** function ___flsub *****************
  7351 ;; Defined at:
  7352 ;;		line 245 in file "C:\Program Files\Microchip\xc8\v2.36\pic\sources\c99\common\sprcadd.c"
  7353 ;; Parameters:    Size  Location     Type
  7354 ;;  b               4   41[COMRAM] unsigned char 
  7355 ;;  a               4   45[COMRAM] unsigned char 
  7356 ;; Auto vars:     Size  Location     Type
  7357 ;;		None
  7358 ;; Return value:  Size  Location     Type
  7359 ;;                  4   41[COMRAM] unsigned char 
  7360 ;; Registers used:
  7361 ;;		wreg, status,2, status,0, cstack
  7362 ;; Tracked objects:
  7363 ;;		On entry : 0/0
  7364 ;;		On exit  : 0/0
  7365 ;;		Unchanged: 0/0
  7366 ;; Data sizes:     COMRAM   BANK0   BANK1   BANK2   BANK3   BANK4   BANK5   BANK6   BANK7
  7367 ;;      Params:         8       0       0       0       0       0       0       0       0
  7368 ;;      Locals:         0       0       0       0       0       0       0       0       0
  7369 ;;      Temps:          0       0       0       0       0       0       0       0       0
  7370 ;;      Totals:         8       0       0       0       0       0       0       0       0
  7371 ;;Total ram usage:        8 bytes
  7372 ;; Hardware stack levels used: 1
  7373 ;; Hardware stack levels required when called: 1
  7374 ;; This function calls:
  7375 ;;		___fladd
  7376 ;; This function is called by:
  7377 ;;		_powf
  7378 ;; This function uses a non-reentrant model
  7379 ;;
  7380                           
  7381                           	psect	text10
  7382  0051D0                     __ptext10:
  7383                           	callstack 0
  7384  0051D0                     ___flsub:
  7385                           	callstack 27
  7386  0051D0  0E00               	movlw	0
  7387  0051D2  1A2E               	xorwf	___flsub@a^0,f,c
  7388  0051D4  0E00               	movlw	0
  7389  0051D6  1A2F               	xorwf	(___flsub@a+1)^0,f,c
  7390  0051D8  0E00               	movlw	0
  7391  0051DA  1A30               	xorwf	(___flsub@a+2)^0,f,c
  7392  0051DC  0E80               	movlw	128
  7393  0051DE  1A31               	xorwf	(___flsub@a+3)^0,f,c
  7394  0051E0  C02A  F001         	movff	___flsub@b,___fladd@b
  7395  0051E4  C02B  F002         	movff	___flsub@b+1,___fladd@b+1
  7396  0051E8  C02C  F003         	movff	___flsub@b+2,___fladd@b+2
  7397  0051EC  C02D  F004         	movff	___flsub@b+3,___fladd@b+3
  7398  0051F0  C02E  F005         	movff	___flsub@a,___fladd@a
  7399  0051F4  C02F  F006         	movff	___flsub@a+1,___fladd@a+1
  7400  0051F8  C030  F007         	movff	___flsub@a+2,___fladd@a+2
  7401  0051FC  C031  F008         	movff	___flsub@a+3,___fladd@a+3
  7402  005200  EC1C  F01B         	call	___fladd	;wreg free
  7403  005204  C001  F02A         	movff	?___fladd,?___flsub
  7404  005208  C002  F02B         	movff	?___fladd+1,?___flsub+1
  7405  00520C  C003  F02C         	movff	?___fladd+2,?___flsub+2
  7406  005210  C004  F02D         	movff	?___fladd+3,?___flsub+3
  7407  005214  0012               	return		;funcret
  7408  005216                     __end_of___flsub:
  7409                           	callstack 0
  7410                           
  7411 ;; *************** function ___fladd *****************
  7412 ;; Defined at:
  7413 ;;		line 10 in file "C:\Program Files\Microchip\xc8\v2.36\pic\sources\c99\common\sprcadd.c"
  7414 ;; Parameters:    Size  Location     Type
  7415 ;;  b               4    0[COMRAM] unsigned char 
  7416 ;;  a               4    4[COMRAM] unsigned char 
  7417 ;; Auto vars:     Size  Location     Type
  7418 ;;  grs             1   15[COMRAM] unsigned char 
  7419 ;;  bexp            1   14[COMRAM] unsigned char 
  7420 ;;  aexp            1   13[COMRAM] unsigned char 
  7421 ;;  signs           1   12[COMRAM] unsigned char 
  7422 ;; Return value:  Size  Location     Type
  7423 ;;                  4    0[COMRAM] unsigned char 
  7424 ;; Registers used:
  7425 ;;		wreg, status,2, status,0
  7426 ;; Tracked objects:
  7427 ;;		On entry : 0/0
  7428 ;;		On exit  : 0/0
  7429 ;;		Unchanged: 0/0
  7430 ;; Data sizes:     COMRAM   BANK0   BANK1   BANK2   BANK3   BANK4   BANK5   BANK6   BANK7
  7431 ;;      Params:         8       0       0       0       0       0       0       0       0
  7432 ;;      Locals:         4       0       0       0       0       0       0       0       0
  7433 ;;      Temps:          4       0       0       0       0       0       0       0       0
  7434 ;;      Totals:        16       0       0       0       0       0       0       0       0
  7435 ;;Total ram usage:       16 bytes
  7436 ;; Hardware stack levels used: 1
  7437 ;; This function calls:
  7438 ;;		Nothing
  7439 ;; This function is called by:
  7440 ;;		___flsub
  7441 ;;		_powf
  7442 ;;		_sqrtf
  7443 ;; This function uses a non-reentrant model
  7444 ;;
  7445                           
  7446                           	psect	text11
  7447  003638                     __ptext11:
  7448                           	callstack 0
  7449  003638                     ___fladd:
  7450                           	callstack 27
  7451  003638  5004               	movf	(___fladd@b+3)^0,w,c
  7452  00363A  0B80               	andlw	128
  7453  00363C  6E0D               	movwf	___fladd@signs^0,c
  7454  00363E  5004               	movf	(___fladd@b+3)^0,w,c
  7455  003640  2404               	addwf	(___fladd@b+3)^0,w,c
  7456  003642  6E0F               	movwf	___fladd@bexp^0,c
  7457  003644  AE03               	btfss	(___fladd@b+2)^0,7,c
  7458  003646  EF27  F01B         	goto	u2171
  7459  00364A  EF29  F01B         	goto	u2170
  7460  00364E                     u2171:
  7461  00364E  EF2A  F01B         	goto	l2525
  7462  003652                     u2170:
  7463  003652  800F               	bsf	___fladd@bexp^0,0,c
  7464  003654                     l2525:
  7465  003654  500F               	movf	___fladd@bexp^0,w,c
  7466  003656  B4D8               	btfsc	status,2,c
  7467  003658  EF30  F01B         	goto	u2181
  7468  00365C  EF32  F01B         	goto	u2180
  7469  003660                     u2181:
  7470  003660  EF47  F01B         	goto	l2535
  7471  003664                     u2180:
  7472  003664  280F               	incf	___fladd@bexp^0,w,c
  7473  003666  A4D8               	btfss	status,2,c
  7474  003668  EF38  F01B         	goto	u2191
  7475  00366C  EF3A  F01B         	goto	u2190
  7476  003670                     u2191:
  7477  003670  EF42  F01B         	goto	l2531
  7478  003674                     u2190:
  7479  003674  0E00               	movlw	0
  7480  003676  6E01               	movwf	___fladd@b^0,c
  7481  003678  0E00               	movlw	0
  7482  00367A  6E02               	movwf	(___fladd@b+1)^0,c
  7483  00367C  0E00               	movlw	0
  7484  00367E  6E03               	movwf	(___fladd@b+2)^0,c
  7485  003680  0E00               	movlw	0
  7486  003682  6E04               	movwf	(___fladd@b+3)^0,c
  7487  003684                     l2531:
  7488  003684  8E03               	bsf	(___fladd@b+2)^0,7,c
  7489  003686  0E00               	movlw	0
  7490  003688  6E04               	movwf	(___fladd@b+3)^0,c
  7491  00368A  EF4F  F01B         	goto	l2537
  7492  00368E                     l2535:
  7493  00368E  0E00               	movlw	0
  7494  003690  6E01               	movwf	___fladd@b^0,c
  7495  003692  0E00               	movlw	0
  7496  003694  6E02               	movwf	(___fladd@b+1)^0,c
  7497  003696  0E00               	movlw	0
  7498  003698  6E03               	movwf	(___fladd@b+2)^0,c
  7499  00369A  0E00               	movlw	0
  7500  00369C  6E04               	movwf	(___fladd@b+3)^0,c
  7501  00369E                     l2537:
  7502  00369E  5008               	movf	(___fladd@a+3)^0,w,c
  7503  0036A0  0B80               	andlw	128
  7504  0036A2  6E0E               	movwf	___fladd@aexp^0,c
  7505  0036A4  500D               	movf	___fladd@signs^0,w,c
  7506  0036A6  180E               	xorwf	___fladd@aexp^0,w,c
  7507  0036A8  B4D8               	btfsc	status,2,c
  7508  0036AA  EF59  F01B         	goto	u2201
  7509  0036AE  EF5B  F01B         	goto	u2200
  7510  0036B2                     u2201:
  7511  0036B2  EF5C  F01B         	goto	l2543
  7512  0036B6                     u2200:
  7513  0036B6  8C0D               	bsf	___fladd@signs^0,6,c
  7514  0036B8                     l2543:
  7515  0036B8  5008               	movf	(___fladd@a+3)^0,w,c
  7516  0036BA  2408               	addwf	(___fladd@a+3)^0,w,c
  7517  0036BC  6E0E               	movwf	___fladd@aexp^0,c
  7518  0036BE  AE07               	btfss	(___fladd@a+2)^0,7,c
  7519  0036C0  EF64  F01B         	goto	u2211
  7520  0036C4  EF66  F01B         	goto	u2210
  7521  0036C8                     u2211:
  7522  0036C8  EF67  F01B         	goto	l2549
  7523  0036CC                     u2210:
  7524  0036CC  800E               	bsf	___fladd@aexp^0,0,c
  7525  0036CE                     l2549:
  7526  0036CE  500E               	movf	___fladd@aexp^0,w,c
  7527  0036D0  B4D8               	btfsc	status,2,c
  7528  0036D2  EF6D  F01B         	goto	u2221
  7529  0036D6  EF6F  F01B         	goto	u2220
  7530  0036DA                     u2221:
  7531  0036DA  EF84  F01B         	goto	l2559
  7532  0036DE                     u2220:
  7533  0036DE  280E               	incf	___fladd@aexp^0,w,c
  7534  0036E0  A4D8               	btfss	status,2,c
  7535  0036E2  EF75  F01B         	goto	u2231
  7536  0036E6  EF77  F01B         	goto	u2230
  7537  0036EA                     u2231:
  7538  0036EA  EF7F  F01B         	goto	l2555
  7539  0036EE                     u2230:
  7540  0036EE  0E00               	movlw	0
  7541  0036F0  6E05               	movwf	___fladd@a^0,c
  7542  0036F2  0E00               	movlw	0
  7543  0036F4  6E06               	movwf	(___fladd@a+1)^0,c
  7544  0036F6  0E00               	movlw	0
  7545  0036F8  6E07               	movwf	(___fladd@a+2)^0,c
  7546  0036FA  0E00               	movlw	0
  7547  0036FC  6E08               	movwf	(___fladd@a+3)^0,c
  7548  0036FE                     l2555:
  7549  0036FE  8E07               	bsf	(___fladd@a+2)^0,7,c
  7550  003700  0E00               	movlw	0
  7551  003702  6E08               	movwf	(___fladd@a+3)^0,c
  7552  003704  EF8C  F01B         	goto	l2561
  7553  003708                     l2559:
  7554  003708  0E00               	movlw	0
  7555  00370A  6E05               	movwf	___fladd@a^0,c
  7556  00370C  0E00               	movlw	0
  7557  00370E  6E06               	movwf	(___fladd@a+1)^0,c
  7558  003710  0E00               	movlw	0
  7559  003712  6E07               	movwf	(___fladd@a+2)^0,c
  7560  003714  0E00               	movlw	0
  7561  003716  6E08               	movwf	(___fladd@a+3)^0,c
  7562  003718                     l2561:
  7563  003718  500F               	movf	___fladd@bexp^0,w,c
  7564  00371A  5C0E               	subwf	___fladd@aexp^0,w,c
  7565  00371C  B0D8               	btfsc	status,0,c
  7566  00371E  EF93  F01B         	goto	u2241
  7567  003722  EF95  F01B         	goto	u2240
  7568  003726                     u2241:
  7569  003726  EFBC  F01B         	goto	l2597
  7570  00372A                     u2240:
  7571  00372A  AC0D               	btfss	___fladd@signs^0,6,c
  7572  00372C  EF9A  F01B         	goto	u2251
  7573  003730  EF9C  F01B         	goto	u2250
  7574  003734                     u2251:
  7575  003734  EF9E  F01B         	goto	l2567
  7576  003738                     u2250:
  7577  003738  0E80               	movlw	128
  7578  00373A  1A0D               	xorwf	___fladd@signs^0,f,c
  7579  00373C                     l2567:
  7580  00373C  C00F  F010         	movff	___fladd@bexp,___fladd@grs
  7581  003740  C00E  F00F         	movff	___fladd@aexp,___fladd@bexp
  7582  003744  C010  F00E         	movff	___fladd@grs,___fladd@aexp
  7583  003748  C001  F010         	movff	___fladd@b,___fladd@grs
  7584  00374C  C005  F001         	movff	___fladd@a,___fladd@b
  7585  003750  C010  F005         	movff	___fladd@grs,___fladd@a
  7586  003754  C002  F010         	movff	___fladd@b+1,___fladd@grs
  7587  003758  C006  F002         	movff	___fladd@a+1,___fladd@b+1
  7588  00375C  C010  F006         	movff	___fladd@grs,___fladd@a+1
  7589  003760  C003  F010         	movff	___fladd@b+2,___fladd@grs
  7590  003764  C007  F003         	movff	___fladd@a+2,___fladd@b+2
  7591  003768  C010  F007         	movff	___fladd@grs,___fladd@a+2
  7592  00376C  C004  F010         	movff	___fladd@b+3,___fladd@grs
  7593  003770  C008  F004         	movff	___fladd@a+3,___fladd@b+3
  7594  003774  C010  F008         	movff	___fladd@grs,___fladd@a+3
  7595  003778                     l2597:
  7596  003778  0E00               	movlw	0
  7597  00377A  6E10               	movwf	___fladd@grs^0,c
  7598  00377C  500F               	movf	___fladd@bexp^0,w,c
  7599  00377E  C00E  F009         	movff	___fladd@aexp,??___fladd
  7600  003782  6A0A               	clrf	(??___fladd+1)^0,c
  7601  003784  5E09               	subwf	??___fladd^0,f,c
  7602  003786  0E00               	movlw	0
  7603  003788  5A0A               	subwfb	(??___fladd+1)^0,f,c
  7604  00378A  BE0A               	btfsc	(??___fladd+1)^0,7,c
  7605  00378C  EFD1  F01B         	goto	u2261
  7606  003790  500A               	movf	(??___fladd+1)^0,w,c
  7607  003792  E109               	bnz	u2260
  7608  003794  0E1A               	movlw	26
  7609  003796  5C09               	subwf	??___fladd^0,w,c
  7610  003798  A0D8               	btfss	status,0,c
  7611  00379A  EFD1  F01B         	goto	u2261
  7612  00379E  EFD3  F01B         	goto	u2260
  7613  0037A2                     u2261:
  7614  0037A2  EF0A  F01C         	goto	l654
  7615  0037A6                     u2260:
  7616  0037A6  5001               	movf	___fladd@b^0,w,c
  7617  0037A8  1002               	iorwf	(___fladd@b+1)^0,w,c
  7618  0037AA  1003               	iorwf	(___fladd@b+2)^0,w,c
  7619  0037AC  1004               	iorwf	(___fladd@b+3)^0,w,c
  7620  0037AE  A4D8               	btfss	status,2,c
  7621  0037B0  EFDC  F01B         	goto	u2271
  7622  0037B4  EFDF  F01B         	goto	u2270
  7623  0037B8                     u2271:
  7624  0037B8  0E01               	movlw	1
  7625  0037BA  EFE0  F01B         	goto	u2280
  7626  0037BE                     u2270:
  7627  0037BE  0E00               	movlw	0
  7628  0037C0                     u2280:
  7629  0037C0  6E10               	movwf	___fladd@grs^0,c
  7630  0037C2  0E00               	movlw	0
  7631  0037C4  6E01               	movwf	___fladd@b^0,c
  7632  0037C6  0E00               	movlw	0
  7633  0037C8  6E02               	movwf	(___fladd@b+1)^0,c
  7634  0037CA  0E00               	movlw	0
  7635  0037CC  6E03               	movwf	(___fladd@b+2)^0,c
  7636  0037CE  0E00               	movlw	0
  7637  0037D0  6E04               	movwf	(___fladd@b+3)^0,c
  7638  0037D2  C00E  F00F         	movff	___fladd@aexp,___fladd@bexp
  7639  0037D6  EF13  F01C         	goto	l653
  7640  0037DA                     l655:
  7641  0037DA  A010               	btfss	___fladd@grs^0,0,c
  7642  0037DC  EFF2  F01B         	goto	u2291
  7643  0037E0  EFF4  F01B         	goto	u2290
  7644  0037E4                     u2291:
  7645  0037E4  EFFA  F01B         	goto	l2609
  7646  0037E8                     u2290:
  7647  0037E8  90D8               	bcf	status,0,c
  7648  0037EA  3010               	rrcf	___fladd@grs^0,w,c
  7649  0037EC  0901               	iorlw	1
  7650  0037EE  6E10               	movwf	___fladd@grs^0,c
  7651  0037F0  EFFC  F01B         	goto	l2611
  7652  0037F4                     l2609:
  7653  0037F4  90D8               	bcf	status,0,c
  7654  0037F6  3210               	rrcf	___fladd@grs^0,f,c
  7655  0037F8                     l2611:
  7656  0037F8  A001               	btfss	___fladd@b^0,0,c
  7657  0037FA  EF01  F01C         	goto	u2301
  7658  0037FE  EF03  F01C         	goto	u2300
  7659  003802                     u2301:
  7660  003802  EF04  F01C         	goto	l2615
  7661  003806                     u2300:
  7662  003806  8E10               	bsf	___fladd@grs^0,7,c
  7663  003808                     l2615:
  7664  003808  3404               	rlcf	(___fladd@b+3)^0,w,c
  7665  00380A  3204               	rrcf	(___fladd@b+3)^0,f,c
  7666  00380C  3203               	rrcf	(___fladd@b+2)^0,f,c
  7667  00380E  3202               	rrcf	(___fladd@b+1)^0,f,c
  7668  003810  3201               	rrcf	___fladd@b^0,f,c
  7669  003812  2A0F               	incf	___fladd@bexp^0,f,c
  7670  003814                     l654:
  7671  003814  500E               	movf	___fladd@aexp^0,w,c
  7672  003816  5C0F               	subwf	___fladd@bexp^0,w,c
  7673  003818  A0D8               	btfss	status,0,c
  7674  00381A  EF11  F01C         	goto	u2311
  7675  00381E  EF13  F01C         	goto	u2310
  7676  003822                     u2311:
  7677  003822  EFED  F01B         	goto	l655
  7678  003826                     u2310:
  7679  003826                     l653:
  7680  003826  BC0D               	btfsc	___fladd@signs^0,6,c
  7681  003828  EF18  F01C         	goto	u2321
  7682  00382C  EF1A  F01C         	goto	u2320
  7683  003830                     u2321:
  7684  003830  EF5A  F01C         	goto	l2643
  7685  003834                     u2320:
  7686  003834  500F               	movf	___fladd@bexp^0,w,c
  7687  003836  A4D8               	btfss	status,2,c
  7688  003838  EF20  F01C         	goto	u2331
  7689  00383C  EF22  F01C         	goto	u2330
  7690  003840                     u2331:
  7691  003840  EF2C  F01C         	goto	l2625
  7692  003844                     u2330:
  7693  003844  0E00               	movlw	0
  7694  003846  6E01               	movwf	?___fladd^0,c
  7695  003848  0E00               	movlw	0
  7696  00384A  6E02               	movwf	(?___fladd+1)^0,c
  7697  00384C  0E00               	movlw	0
  7698  00384E  6E03               	movwf	(?___fladd+2)^0,c
  7699  003850  0E00               	movlw	0
  7700  003852  6E04               	movwf	(?___fladd+3)^0,c
  7701  003854  EF7B  F01D         	goto	l662
  7702  003858                     l2625:
  7703  003858  5005               	movf	___fladd@a^0,w,c
  7704  00385A  2601               	addwf	___fladd@b^0,f,c
  7705  00385C  5006               	movf	(___fladd@a+1)^0,w,c
  7706  00385E  2202               	addwfc	(___fladd@b+1)^0,f,c
  7707  003860  5007               	movf	(___fladd@a+2)^0,w,c
  7708  003862  2203               	addwfc	(___fladd@b+2)^0,f,c
  7709  003864  5008               	movf	(___fladd@a+3)^0,w,c
  7710  003866  2204               	addwfc	(___fladd@b+3)^0,f,c
  7711  003868  A004               	btfss	(___fladd@b+3)^0,0,c
  7712  00386A  EF39  F01C         	goto	u2341
  7713  00386E  EF3B  F01C         	goto	u2340
  7714  003872                     u2341:
  7715  003872  EFE7  F01C         	goto	l2679
  7716  003876                     u2340:
  7717  003876  A010               	btfss	___fladd@grs^0,0,c
  7718  003878  EF40  F01C         	goto	u2351
  7719  00387C  EF42  F01C         	goto	u2350
  7720  003880                     u2351:
  7721  003880  EF48  F01C         	goto	l2633
  7722  003884                     u2350:
  7723  003884  90D8               	bcf	status,0,c
  7724  003886  3010               	rrcf	___fladd@grs^0,w,c
  7725  003888  0901               	iorlw	1
  7726  00388A  6E10               	movwf	___fladd@grs^0,c
  7727  00388C  EF4A  F01C         	goto	l2635
  7728  003890                     l2633:
  7729  003890  90D8               	bcf	status,0,c
  7730  003892  3210               	rrcf	___fladd@grs^0,f,c
  7731  003894                     l2635:
  7732  003894  A001               	btfss	___fladd@b^0,0,c
  7733  003896  EF4F  F01C         	goto	u2361
  7734  00389A  EF51  F01C         	goto	u2360
  7735  00389E                     u2361:
  7736  00389E  EF52  F01C         	goto	l2639
  7737  0038A2                     u2360:
  7738  0038A2  8E10               	bsf	___fladd@grs^0,7,c
  7739  0038A4                     l2639:
  7740  0038A4  3404               	rlcf	(___fladd@b+3)^0,w,c
  7741  0038A6  3204               	rrcf	(___fladd@b+3)^0,f,c
  7742  0038A8  3203               	rrcf	(___fladd@b+2)^0,f,c
  7743  0038AA  3202               	rrcf	(___fladd@b+1)^0,f,c
  7744  0038AC  3201               	rrcf	___fladd@b^0,f,c
  7745  0038AE  2A0F               	incf	___fladd@bexp^0,f,c
  7746  0038B0  EFE7  F01C         	goto	l2679
  7747  0038B4                     l2643:
  7748  0038B4  5005               	movf	___fladd@a^0,w,c
  7749  0038B6  5C01               	subwf	___fladd@b^0,w,c
  7750  0038B8  5006               	movf	(___fladd@a+1)^0,w,c
  7751  0038BA  5802               	subwfb	(___fladd@b+1)^0,w,c
  7752  0038BC  5007               	movf	(___fladd@a+2)^0,w,c
  7753  0038BE  5803               	subwfb	(___fladd@b+2)^0,w,c
  7754  0038C0  5004               	movf	(___fladd@b+3)^0,w,c
  7755  0038C2  0A80               	xorlw	128
  7756  0038C4  6E09               	movwf	??___fladd^0,c
  7757  0038C6  5008               	movf	(___fladd@a+3)^0,w,c
  7758  0038C8  0A80               	xorlw	128
  7759  0038CA  5809               	subwfb	??___fladd^0,w,c
  7760  0038CC  B0D8               	btfsc	status,0,c
  7761  0038CE  EF6B  F01C         	goto	u2371
  7762  0038D2  EF6D  F01C         	goto	u2370
  7763  0038D6                     u2371:
  7764  0038D6  EF98  F01C         	goto	l2653
  7765  0038DA                     u2370:
  7766  0038DA  5001               	movf	___fladd@b^0,w,c
  7767  0038DC  5C05               	subwf	___fladd@a^0,w,c
  7768  0038DE  6E09               	movwf	??___fladd^0,c
  7769  0038E0  5002               	movf	(___fladd@b+1)^0,w,c
  7770  0038E2  5806               	subwfb	(___fladd@a+1)^0,w,c
  7771  0038E4  6E0A               	movwf	(??___fladd+1)^0,c
  7772  0038E6  5003               	movf	(___fladd@b+2)^0,w,c
  7773  0038E8  5807               	subwfb	(___fladd@a+2)^0,w,c
  7774  0038EA  6E0B               	movwf	(??___fladd+2)^0,c
  7775  0038EC  5004               	movf	(___fladd@b+3)^0,w,c
  7776  0038EE  5808               	subwfb	(___fladd@a+3)^0,w,c
  7777  0038F0  6E0C               	movwf	(??___fladd+3)^0,c
  7778  0038F2  0EFF               	movlw	255
  7779  0038F4  2409               	addwf	??___fladd^0,w,c
  7780  0038F6  6E01               	movwf	___fladd@b^0,c
  7781  0038F8  0EFF               	movlw	255
  7782  0038FA  200A               	addwfc	(??___fladd+1)^0,w,c
  7783  0038FC  6E02               	movwf	(___fladd@b+1)^0,c
  7784  0038FE  0EFF               	movlw	255
  7785  003900  200B               	addwfc	(??___fladd+2)^0,w,c
  7786  003902  6E03               	movwf	(___fladd@b+2)^0,c
  7787  003904  0EFF               	movlw	255
  7788  003906  200C               	addwfc	(??___fladd+3)^0,w,c
  7789  003908  6E04               	movwf	(___fladd@b+3)^0,c
  7790  00390A  0E80               	movlw	128
  7791  00390C  1A0D               	xorwf	___fladd@signs^0,f,c
  7792  00390E  6C10               	negf	___fladd@grs^0,c
  7793  003910  5010               	movf	___fladd@grs^0,w,c
  7794  003912  A4D8               	btfss	status,2,c
  7795  003914  EF8E  F01C         	goto	u2381
  7796  003918  EF90  F01C         	goto	u2380
  7797  00391C                     u2381:
  7798  00391C  EFA0  F01C         	goto	l670
  7799  003920                     u2380:
  7800  003920  0E01               	movlw	1
  7801  003922  2601               	addwf	___fladd@b^0,f,c
  7802  003924  0E00               	movlw	0
  7803  003926  2202               	addwfc	(___fladd@b+1)^0,f,c
  7804  003928  2203               	addwfc	(___fladd@b+2)^0,f,c
  7805  00392A  2204               	addwfc	(___fladd@b+3)^0,f,c
  7806  00392C  EFA0  F01C         	goto	l670
  7807  003930                     l2653:
  7808  003930  5005               	movf	___fladd@a^0,w,c
  7809  003932  5E01               	subwf	___fladd@b^0,f,c
  7810  003934  5006               	movf	(___fladd@a+1)^0,w,c
  7811  003936  5A02               	subwfb	(___fladd@b+1)^0,f,c
  7812  003938  5007               	movf	(___fladd@a+2)^0,w,c
  7813  00393A  5A03               	subwfb	(___fladd@b+2)^0,f,c
  7814  00393C  5008               	movf	(___fladd@a+3)^0,w,c
  7815  00393E  5A04               	subwfb	(___fladd@b+3)^0,f,c
  7816  003940                     l670:
  7817  003940  5001               	movf	___fladd@b^0,w,c
  7818  003942  1002               	iorwf	(___fladd@b+1)^0,w,c
  7819  003944  1003               	iorwf	(___fladd@b+2)^0,w,c
  7820  003946  1004               	iorwf	(___fladd@b+3)^0,w,c
  7821  003948  A4D8               	btfss	status,2,c
  7822  00394A  EFA9  F01C         	goto	u2391
  7823  00394E  EFAB  F01C         	goto	u2390
  7824  003952                     u2391:
  7825  003952  EFE0  F01C         	goto	l2677
  7826  003956                     u2390:
  7827  003956  5010               	movf	___fladd@grs^0,w,c
  7828  003958  A4D8               	btfss	status,2,c
  7829  00395A  EFB1  F01C         	goto	u2401
  7830  00395E  EFB3  F01C         	goto	u2400
  7831  003962                     u2401:
  7832  003962  EFE0  F01C         	goto	l2677
  7833  003966                     u2400:
  7834  003966  0E00               	movlw	0
  7835  003968  6E01               	movwf	?___fladd^0,c
  7836  00396A  0E00               	movlw	0
  7837  00396C  6E02               	movwf	(?___fladd+1)^0,c
  7838  00396E  0E00               	movlw	0
  7839  003970  6E03               	movwf	(?___fladd+2)^0,c
  7840  003972  0E00               	movlw	0
  7841  003974  6E04               	movwf	(?___fladd+3)^0,c
  7842  003976  EF7B  F01D         	goto	l662
  7843  00397A                     l2661:
  7844  00397A  90D8               	bcf	status,0,c
  7845  00397C  3601               	rlcf	___fladd@b^0,f,c
  7846  00397E  3602               	rlcf	(___fladd@b+1)^0,f,c
  7847  003980  3603               	rlcf	(___fladd@b+2)^0,f,c
  7848  003982  3604               	rlcf	(___fladd@b+3)^0,f,c
  7849  003984  AE10               	btfss	___fladd@grs^0,7,c
  7850  003986  EFC7  F01C         	goto	u2411
  7851  00398A  EFC9  F01C         	goto	u2410
  7852  00398E                     u2411:
  7853  00398E  EFCA  F01C         	goto	l2667
  7854  003992                     u2410:
  7855  003992  8001               	bsf	___fladd@b^0,0,c
  7856  003994                     l2667:
  7857  003994  A010               	btfss	___fladd@grs^0,0,c
  7858  003996  EFCF  F01C         	goto	u2421
  7859  00399A  EFD1  F01C         	goto	u2420
  7860  00399E                     u2421:
  7861  00399E  EFD5  F01C         	goto	l2671
  7862  0039A2                     u2420:
  7863  0039A2  80D8               	bsf	status,0,c
  7864  0039A4  3610               	rlcf	___fladd@grs^0,f,c
  7865  0039A6  EFD7  F01C         	goto	l2673
  7866  0039AA                     l2671:
  7867  0039AA  90D8               	bcf	status,0,c
  7868  0039AC  3610               	rlcf	___fladd@grs^0,f,c
  7869  0039AE                     l2673:
  7870  0039AE  500F               	movf	___fladd@bexp^0,w,c
  7871  0039B0  B4D8               	btfsc	status,2,c
  7872  0039B2  EFDD  F01C         	goto	u2431
  7873  0039B6  EFDF  F01C         	goto	u2430
  7874  0039BA                     u2431:
  7875  0039BA  EFE0  F01C         	goto	l2677
  7876  0039BE                     u2430:
  7877  0039BE  060F               	decf	___fladd@bexp^0,f,c
  7878  0039C0                     l2677:
  7879  0039C0  AE03               	btfss	(___fladd@b+2)^0,7,c
  7880  0039C2  EFE5  F01C         	goto	u2441
  7881  0039C6  EFE7  F01C         	goto	u2440
  7882  0039CA                     u2441:
  7883  0039CA  EFBD  F01C         	goto	l2661
  7884  0039CE                     u2440:
  7885  0039CE                     l2679:
  7886  0039CE  0E00               	movlw	0
  7887  0039D0  6E0E               	movwf	___fladd@aexp^0,c
  7888  0039D2  AE10               	btfss	___fladd@grs^0,7,c
  7889  0039D4  EFEE  F01C         	goto	u2451
  7890  0039D8  EFF0  F01C         	goto	u2450
  7891  0039DC                     u2451:
  7892  0039DC  EF08  F01D         	goto	l679
  7893  0039E0                     u2450:
  7894  0039E0  C010  F009         	movff	___fladd@grs,??___fladd
  7895  0039E4  0E7F               	movlw	127
  7896  0039E6  1609               	andwf	??___fladd^0,f,c
  7897  0039E8  B4D8               	btfsc	status,2,c
  7898  0039EA  EFF9  F01C         	goto	u2461
  7899  0039EE  EFFB  F01C         	goto	u2460
  7900  0039F2                     u2461:
  7901  0039F2  EFFF  F01C         	goto	l680
  7902  0039F6                     u2460:
  7903  0039F6                     l2685:
  7904  0039F6  0E01               	movlw	1
  7905  0039F8  6E0E               	movwf	___fladd@aexp^0,c
  7906  0039FA  EF08  F01D         	goto	l679
  7907  0039FE                     l680:
  7908  0039FE  A001               	btfss	___fladd@b^0,0,c
  7909  003A00  EF04  F01D         	goto	u2471
  7910  003A04  EF06  F01D         	goto	u2470
  7911  003A08                     u2471:
  7912  003A08  EF08  F01D         	goto	l679
  7913  003A0C                     u2470:
  7914  003A0C  EFFB  F01C         	goto	l2685
  7915  003A10                     l679:
  7916  003A10  500E               	movf	___fladd@aexp^0,w,c
  7917  003A12  B4D8               	btfsc	status,2,c
  7918  003A14  EF0E  F01D         	goto	u2481
  7919  003A18  EF10  F01D         	goto	u2480
  7920  003A1C                     u2481:
  7921  003A1C  EF3B  F01D         	goto	l2697
  7922  003A20                     u2480:
  7923  003A20  0E01               	movlw	1
  7924  003A22  2601               	addwf	___fladd@b^0,f,c
  7925  003A24  0E00               	movlw	0
  7926  003A26  2202               	addwfc	(___fladd@b+1)^0,f,c
  7927  003A28  2203               	addwfc	(___fladd@b+2)^0,f,c
  7928  003A2A  2204               	addwfc	(___fladd@b+3)^0,f,c
  7929  003A2C  A004               	btfss	(___fladd@b+3)^0,0,c
  7930  003A2E  EF1B  F01D         	goto	u2491
  7931  003A32  EF1D  F01D         	goto	u2490
  7932  003A36                     u2491:
  7933  003A36  EF3B  F01D         	goto	l2697
  7934  003A3A                     u2490:
  7935  003A3A  C001  F009         	movff	___fladd@b,??___fladd
  7936  003A3E  C002  F00A         	movff	___fladd@b+1,??___fladd+1
  7937  003A42  C003  F00B         	movff	___fladd@b+2,??___fladd+2
  7938  003A46  C004  F00C         	movff	___fladd@b+3,??___fladd+3
  7939  003A4A  340C               	rlcf	(??___fladd+3)^0,w,c
  7940  003A4C  320C               	rrcf	(??___fladd+3)^0,f,c
  7941  003A4E  320B               	rrcf	(??___fladd+2)^0,f,c
  7942  003A50  320A               	rrcf	(??___fladd+1)^0,f,c
  7943  003A52  3209               	rrcf	??___fladd^0,f,c
  7944  003A54  C009  F001         	movff	??___fladd,___fladd@b
  7945  003A58  C00A  F002         	movff	??___fladd+1,___fladd@b+1
  7946  003A5C  C00B  F003         	movff	??___fladd+2,___fladd@b+2
  7947  003A60  C00C  F004         	movff	??___fladd+3,___fladd@b+3
  7948  003A64  280F               	incf	___fladd@bexp^0,w,c
  7949  003A66  B4D8               	btfsc	status,2,c
  7950  003A68  EF38  F01D         	goto	u2501
  7951  003A6C  EF3A  F01D         	goto	u2500
  7952  003A70                     u2501:
  7953  003A70  EF3B  F01D         	goto	l2697
  7954  003A74                     u2500:
  7955  003A74  2A0F               	incf	___fladd@bexp^0,f,c
  7956  003A76                     l2697:
  7957  003A76  280F               	incf	___fladd@bexp^0,w,c
  7958  003A78  B4D8               	btfsc	status,2,c
  7959  003A7A  EF41  F01D         	goto	u2511
  7960  003A7E  EF43  F01D         	goto	u2510
  7961  003A82                     u2511:
  7962  003A82  EF4B  F01D         	goto	l2701
  7963  003A86                     u2510:
  7964  003A86  500F               	movf	___fladd@bexp^0,w,c
  7965  003A88  A4D8               	btfss	status,2,c
  7966  003A8A  EF49  F01D         	goto	u2521
  7967  003A8E  EF4B  F01D         	goto	u2520
  7968  003A92                     u2521:
  7969  003A92  EF5D  F01D         	goto	l2705
  7970  003A96                     u2520:
  7971  003A96                     l2701:
  7972  003A96  0E00               	movlw	0
  7973  003A98  6E01               	movwf	___fladd@b^0,c
  7974  003A9A  0E00               	movlw	0
  7975  003A9C  6E02               	movwf	(___fladd@b+1)^0,c
  7976  003A9E  0E00               	movlw	0
  7977  003AA0  6E03               	movwf	(___fladd@b+2)^0,c
  7978  003AA2  0E00               	movlw	0
  7979  003AA4  6E04               	movwf	(___fladd@b+3)^0,c
  7980  003AA6  500F               	movf	___fladd@bexp^0,w,c
  7981  003AA8  A4D8               	btfss	status,2,c
  7982  003AAA  EF59  F01D         	goto	u2531
  7983  003AAE  EF5B  F01D         	goto	u2530
  7984  003AB2                     u2531:
  7985  003AB2  EF5D  F01D         	goto	l2705
  7986  003AB6                     u2530:
  7987  003AB6  0E00               	movlw	0
  7988  003AB8  6E0D               	movwf	___fladd@signs^0,c
  7989  003ABA                     l2705:
  7990  003ABA  A00F               	btfss	___fladd@bexp^0,0,c
  7991  003ABC  EF62  F01D         	goto	u2541
  7992  003AC0  EF64  F01D         	goto	u2540
  7993  003AC4                     u2541:
  7994  003AC4  EF67  F01D         	goto	l2709
  7995  003AC8                     u2540:
  7996  003AC8  8E03               	bsf	(___fladd@b+2)^0,7,c
  7997  003ACA  EF68  F01D         	goto	l2711
  7998  003ACE                     l2709:
  7999  003ACE  9E03               	bcf	(___fladd@b+2)^0,7,c
  8000  003AD0                     l2711:
  8001  003AD0  90D8               	bcf	status,0,c
  8002  003AD2  300F               	rrcf	___fladd@bexp^0,w,c
  8003  003AD4  6E04               	movwf	(___fladd@b+3)^0,c
  8004  003AD6  AE0D               	btfss	___fladd@signs^0,7,c
  8005  003AD8  EF70  F01D         	goto	u2551
  8006  003ADC  EF72  F01D         	goto	u2550
  8007  003AE0                     u2551:
  8008  003AE0  EF73  F01D         	goto	l2717
  8009  003AE4                     u2550:
  8010  003AE4  8E04               	bsf	(___fladd@b+3)^0,7,c
  8011  003AE6                     l2717:
  8012  003AE6  C001  F001         	movff	___fladd@b,?___fladd
  8013  003AEA  C002  F002         	movff	___fladd@b+1,?___fladd+1
  8014  003AEE  C003  F003         	movff	___fladd@b+2,?___fladd+2
  8015  003AF2  C004  F004         	movff	___fladd@b+3,?___fladd+3
  8016  003AF6                     l662:
  8017  003AF6  0012               	return		;funcret
  8018  003AF8                     __end_of___fladd:
  8019                           	callstack 0
  8020                           
  8021 ;; *************** function ___flneg *****************
  8022 ;; Defined at:
  8023 ;;		line 15 in file "C:\Program Files\Microchip\xc8\v2.36\pic\sources\c99\common\flneg.c"
  8024 ;; Parameters:    Size  Location     Type
  8025 ;;  f1              4    0[COMRAM] unsigned char 
  8026 ;; Auto vars:     Size  Location     Type
  8027 ;;		None
  8028 ;; Return value:  Size  Location     Type
  8029 ;;                  4    0[COMRAM] unsigned char 
  8030 ;; Registers used:
  8031 ;;		wreg, status,2, status,0
  8032 ;; Tracked objects:
  8033 ;;		On entry : 0/0
  8034 ;;		On exit  : 0/0
  8035 ;;		Unchanged: 0/0
  8036 ;; Data sizes:     COMRAM   BANK0   BANK1   BANK2   BANK3   BANK4   BANK5   BANK6   BANK7
  8037 ;;      Params:         4       0       0       0       0       0       0       0       0
  8038 ;;      Locals:         0       0       0       0       0       0       0       0       0
  8039 ;;      Temps:          0       0       0       0       0       0       0       0       0
  8040 ;;      Totals:         4       0       0       0       0       0       0       0       0
  8041 ;;Total ram usage:        4 bytes
  8042 ;; Hardware stack levels used: 1
  8043 ;; This function calls:
  8044 ;;		Nothing
  8045 ;; This function is called by:
  8046 ;;		_powf
  8047 ;; This function uses a non-reentrant model
  8048 ;;
  8049                           
  8050                           	psect	text12
  8051  005216                     __ptext12:
  8052                           	callstack 0
  8053  005216                     ___flneg:
  8054                           	callstack 28
  8055  005216  5001               	movf	___flneg@f1^0,w,c
  8056  005218  1002               	iorwf	(___flneg@f1+1)^0,w,c
  8057  00521A  1003               	iorwf	(___flneg@f1+2)^0,w,c
  8058  00521C  1004               	iorwf	(___flneg@f1+3)^0,w,c
  8059  00521E  B4D8               	btfsc	status,2,c
  8060  005220  EF14  F029         	goto	u3031
  8061  005224  EF16  F029         	goto	u3030
  8062  005228                     u3031:
  8063  005228  EF1E  F029         	goto	l3027
  8064  00522C                     u3030:
  8065  00522C  0E00               	movlw	0
  8066  00522E  1A01               	xorwf	___flneg@f1^0,f,c
  8067  005230  0E00               	movlw	0
  8068  005232  1A02               	xorwf	(___flneg@f1+1)^0,f,c
  8069  005234  0E00               	movlw	0
  8070  005236  1A03               	xorwf	(___flneg@f1+2)^0,f,c
  8071  005238  0E80               	movlw	128
  8072  00523A  1A04               	xorwf	(___flneg@f1+3)^0,f,c
  8073  00523C                     l3027:
  8074  00523C  C001  F001         	movff	___flneg@f1,?___flneg
  8075  005240  C002  F002         	movff	___flneg@f1+1,?___flneg+1
  8076  005244  C003  F003         	movff	___flneg@f1+2,?___flneg+2
  8077  005248  C004  F004         	movff	___flneg@f1+3,?___flneg+3
  8078  00524C  0012               	return		;funcret
  8079  00524E                     __end_of___flneg:
  8080                           	callstack 0
  8081                           
  8082 ;; *************** function ___fldiv *****************
  8083 ;; Defined at:
  8084 ;;		line 11 in file "C:\Program Files\Microchip\xc8\v2.36\pic\sources\c99\common\sprcdiv.c"
  8085 ;; Parameters:    Size  Location     Type
  8086 ;;  b               4   49[COMRAM] unsigned char 
  8087 ;;  a               4   53[COMRAM] unsigned char 
  8088 ;; Auto vars:     Size  Location     Type
  8089 ;;  grs             4   68[COMRAM] unsigned long 
  8090 ;;  rem             4   61[COMRAM] unsigned long 
  8091 ;;  new_exp         2   66[COMRAM] short 
  8092 ;;  aexp            1   73[COMRAM] unsigned char 
  8093 ;;  bexp            1   72[COMRAM] unsigned char 
  8094 ;;  sign            1   65[COMRAM] unsigned char 
  8095 ;; Return value:  Size  Location     Type
  8096 ;;                  4   49[COMRAM] unsigned char 
  8097 ;; Registers used:
  8098 ;;		wreg, status,2, status,0
  8099 ;; Tracked objects:
  8100 ;;		On entry : 0/0
  8101 ;;		On exit  : 0/0
  8102 ;;		Unchanged: 0/0
  8103 ;; Data sizes:     COMRAM   BANK0   BANK1   BANK2   BANK3   BANK4   BANK5   BANK6   BANK7
  8104 ;;      Params:         8       0       0       0       0       0       0       0       0
  8105 ;;      Locals:        13       0       0       0       0       0       0       0       0
  8106 ;;      Temps:          4       0       0       0       0       0       0       0       0
  8107 ;;      Totals:        25       0       0       0       0       0       0       0       0
  8108 ;;Total ram usage:       25 bytes
  8109 ;; Hardware stack levels used: 1
  8110 ;; This function calls:
  8111 ;;		Nothing
  8112 ;; This function is called by:
  8113 ;;		_powf
  8114 ;; This function uses a non-reentrant model
  8115 ;;
  8116                           
  8117                           	psect	text13
  8118  00439E                     __ptext13:
  8119                           	callstack 0
  8120  00439E                     ___fldiv:
  8121                           	callstack 28
  8122  00439E  5035               	movf	(___fldiv@b+3)^0,w,c
  8123  0043A0  0B80               	andlw	128
  8124  0043A2  6E42               	movwf	___fldiv@sign^0,c
  8125  0043A4  5035               	movf	(___fldiv@b+3)^0,w,c
  8126  0043A6  2435               	addwf	(___fldiv@b+3)^0,w,c
  8127  0043A8  6E49               	movwf	___fldiv@bexp^0,c
  8128  0043AA  AE34               	btfss	(___fldiv@b+2)^0,7,c
  8129  0043AC  EFDA  F021         	goto	u2801
  8130  0043B0  EFDC  F021         	goto	u2800
  8131  0043B4                     u2801:
  8132  0043B4  EFDD  F021         	goto	l2885
  8133  0043B8                     u2800:
  8134  0043B8  8049               	bsf	___fldiv@bexp^0,0,c
  8135  0043BA                     l2885:
  8136  0043BA  5049               	movf	___fldiv@bexp^0,w,c
  8137  0043BC  B4D8               	btfsc	status,2,c
  8138  0043BE  EFE3  F021         	goto	u2811
  8139  0043C2  EFE5  F021         	goto	u2810
  8140  0043C6                     u2811:
  8141  0043C6  EFFA  F021         	goto	l2895
  8142  0043CA                     u2810:
  8143  0043CA  2849               	incf	___fldiv@bexp^0,w,c
  8144  0043CC  A4D8               	btfss	status,2,c
  8145  0043CE  EFEB  F021         	goto	u2821
  8146  0043D2  EFED  F021         	goto	u2820
  8147  0043D6                     u2821:
  8148  0043D6  EFF5  F021         	goto	l2891
  8149  0043DA                     u2820:
  8150  0043DA  0E00               	movlw	0
  8151  0043DC  6E32               	movwf	___fldiv@b^0,c
  8152  0043DE  0E00               	movlw	0
  8153  0043E0  6E33               	movwf	(___fldiv@b+1)^0,c
  8154  0043E2  0E00               	movlw	0
  8155  0043E4  6E34               	movwf	(___fldiv@b+2)^0,c
  8156  0043E6  0E00               	movlw	0
  8157  0043E8  6E35               	movwf	(___fldiv@b+3)^0,c
  8158  0043EA                     l2891:
  8159  0043EA  8E34               	bsf	(___fldiv@b+2)^0,7,c
  8160  0043EC  0E00               	movlw	0
  8161  0043EE  6E35               	movwf	(___fldiv@b+3)^0,c
  8162  0043F0  EF02  F022         	goto	l2897
  8163  0043F4                     l2895:
  8164  0043F4  0E00               	movlw	0
  8165  0043F6  6E32               	movwf	___fldiv@b^0,c
  8166  0043F8  0E00               	movlw	0
  8167  0043FA  6E33               	movwf	(___fldiv@b+1)^0,c
  8168  0043FC  0E00               	movlw	0
  8169  0043FE  6E34               	movwf	(___fldiv@b+2)^0,c
  8170  004400  0E00               	movlw	0
  8171  004402  6E35               	movwf	(___fldiv@b+3)^0,c
  8172  004404                     l2897:
  8173  004404  5039               	movf	(___fldiv@a+3)^0,w,c
  8174  004406  0B80               	andlw	128
  8175  004408  1A42               	xorwf	___fldiv@sign^0,f,c
  8176  00440A  5039               	movf	(___fldiv@a+3)^0,w,c
  8177  00440C  2439               	addwf	(___fldiv@a+3)^0,w,c
  8178  00440E  6E4A               	movwf	___fldiv@aexp^0,c
  8179  004410  AE38               	btfss	(___fldiv@a+2)^0,7,c
  8180  004412  EF0D  F022         	goto	u2831
  8181  004416  EF0F  F022         	goto	u2830
  8182  00441A                     u2831:
  8183  00441A  EF10  F022         	goto	l2905
  8184  00441E                     u2830:
  8185  00441E  804A               	bsf	___fldiv@aexp^0,0,c
  8186  004420                     l2905:
  8187  004420  504A               	movf	___fldiv@aexp^0,w,c
  8188  004422  B4D8               	btfsc	status,2,c
  8189  004424  EF16  F022         	goto	u2841
  8190  004428  EF18  F022         	goto	u2840
  8191  00442C                     u2841:
  8192  00442C  EF2D  F022         	goto	l2915
  8193  004430                     u2840:
  8194  004430  284A               	incf	___fldiv@aexp^0,w,c
  8195  004432  A4D8               	btfss	status,2,c
  8196  004434  EF1E  F022         	goto	u2851
  8197  004438  EF20  F022         	goto	u2850
  8198  00443C                     u2851:
  8199  00443C  EF28  F022         	goto	l2911
  8200  004440                     u2850:
  8201  004440  0E00               	movlw	0
  8202  004442  6E36               	movwf	___fldiv@a^0,c
  8203  004444  0E00               	movlw	0
  8204  004446  6E37               	movwf	(___fldiv@a+1)^0,c
  8205  004448  0E00               	movlw	0
  8206  00444A  6E38               	movwf	(___fldiv@a+2)^0,c
  8207  00444C  0E00               	movlw	0
  8208  00444E  6E39               	movwf	(___fldiv@a+3)^0,c
  8209  004450                     l2911:
  8210  004450  8E38               	bsf	(___fldiv@a+2)^0,7,c
  8211  004452  0E00               	movlw	0
  8212  004454  6E39               	movwf	(___fldiv@a+3)^0,c
  8213  004456  EF35  F022         	goto	l2917
  8214  00445A                     l2915:
  8215  00445A  0E00               	movlw	0
  8216  00445C  6E36               	movwf	___fldiv@a^0,c
  8217  00445E  0E00               	movlw	0
  8218  004460  6E37               	movwf	(___fldiv@a+1)^0,c
  8219  004462  0E00               	movlw	0
  8220  004464  6E38               	movwf	(___fldiv@a+2)^0,c
  8221  004466  0E00               	movlw	0
  8222  004468  6E39               	movwf	(___fldiv@a+3)^0,c
  8223  00446A                     l2917:
  8224  00446A  5036               	movf	___fldiv@a^0,w,c
  8225  00446C  1037               	iorwf	(___fldiv@a+1)^0,w,c
  8226  00446E  1038               	iorwf	(___fldiv@a+2)^0,w,c
  8227  004470  1039               	iorwf	(___fldiv@a+3)^0,w,c
  8228  004472  A4D8               	btfss	status,2,c
  8229  004474  EF3E  F022         	goto	u2861
  8230  004478  EF40  F022         	goto	u2860
  8231  00447C                     u2861:
  8232  00447C  EF58  F022         	goto	l2929
  8233  004480                     u2860:
  8234  004480  0E00               	movlw	0
  8235  004482  6E32               	movwf	___fldiv@b^0,c
  8236  004484  0E00               	movlw	0
  8237  004486  6E33               	movwf	(___fldiv@b+1)^0,c
  8238  004488  0E00               	movlw	0
  8239  00448A  6E34               	movwf	(___fldiv@b+2)^0,c
  8240  00448C  0E00               	movlw	0
  8241  00448E  6E35               	movwf	(___fldiv@b+3)^0,c
  8242  004490  0E80               	movlw	128
  8243  004492  1234               	iorwf	(___fldiv@b+2)^0,f,c
  8244  004494  0E7F               	movlw	127
  8245  004496  1235               	iorwf	(___fldiv@b+3)^0,f,c
  8246  004498                     l2923:
  8247  004498  5042               	movf	___fldiv@sign^0,w,c
  8248  00449A  1235               	iorwf	(___fldiv@b+3)^0,f,c
  8249  00449C  C032  F032         	movff	___fldiv@b,?___fldiv
  8250  0044A0  C033  F033         	movff	___fldiv@b+1,?___fldiv+1
  8251  0044A4  C034  F034         	movff	___fldiv@b+2,?___fldiv+2
  8252  0044A8  C035  F035         	movff	___fldiv@b+3,?___fldiv+3
  8253  0044AC  EF9B  F023         	goto	l707
  8254  0044B0                     l2929:
  8255  0044B0  5049               	movf	___fldiv@bexp^0,w,c
  8256  0044B2  A4D8               	btfss	status,2,c
  8257  0044B4  EF5E  F022         	goto	u2871
  8258  0044B8  EF60  F022         	goto	u2870
  8259  0044BC                     u2871:
  8260  0044BC  EF6A  F022         	goto	l2937
  8261  0044C0                     u2870:
  8262  0044C0  0E00               	movlw	0
  8263  0044C2  6E32               	movwf	?___fldiv^0,c
  8264  0044C4  0E00               	movlw	0
  8265  0044C6  6E33               	movwf	(?___fldiv+1)^0,c
  8266  0044C8  0E00               	movlw	0
  8267  0044CA  6E34               	movwf	(?___fldiv+2)^0,c
  8268  0044CC  0E00               	movlw	0
  8269  0044CE  6E35               	movwf	(?___fldiv+3)^0,c
  8270  0044D0  EF9B  F023         	goto	l707
  8271  0044D4                     l2937:
  8272  0044D4  504A               	movf	___fldiv@aexp^0,w,c
  8273  0044D6  C049  F03A         	movff	___fldiv@bexp,??___fldiv
  8274  0044DA  6A3B               	clrf	(??___fldiv+1)^0,c
  8275  0044DC  5E3A               	subwf	??___fldiv^0,f,c
  8276  0044DE  0E00               	movlw	0
  8277  0044E0  5A3B               	subwfb	(??___fldiv+1)^0,f,c
  8278  0044E2  0E7F               	movlw	127
  8279  0044E4  243A               	addwf	??___fldiv^0,w,c
  8280  0044E6  6E43               	movwf	___fldiv@new_exp^0,c
  8281  0044E8  0E00               	movlw	0
  8282  0044EA  203B               	addwfc	(??___fldiv+1)^0,w,c
  8283  0044EC  6E44               	movwf	(___fldiv@new_exp+1)^0,c
  8284  0044EE  C032  F03E         	movff	___fldiv@b,___fldiv@rem
  8285  0044F2  C033  F03F         	movff	___fldiv@b+1,___fldiv@rem+1
  8286  0044F6  C034  F040         	movff	___fldiv@b+2,___fldiv@rem+2
  8287  0044FA  C035  F041         	movff	___fldiv@b+3,___fldiv@rem+3
  8288  0044FE  0E00               	movlw	0
  8289  004500  6E32               	movwf	___fldiv@b^0,c
  8290  004502  0E00               	movlw	0
  8291  004504  6E33               	movwf	(___fldiv@b+1)^0,c
  8292  004506  0E00               	movlw	0
  8293  004508  6E34               	movwf	(___fldiv@b+2)^0,c
  8294  00450A  0E00               	movlw	0
  8295  00450C  6E35               	movwf	(___fldiv@b+3)^0,c
  8296  00450E  0E00               	movlw	0
  8297  004510  6E45               	movwf	___fldiv@grs^0,c
  8298  004512  0E00               	movlw	0
  8299  004514  6E46               	movwf	(___fldiv@grs+1)^0,c
  8300  004516  0E00               	movlw	0
  8301  004518  6E47               	movwf	(___fldiv@grs+2)^0,c
  8302  00451A  0E00               	movlw	0
  8303  00451C  6E48               	movwf	(___fldiv@grs+3)^0,c
  8304  00451E  0E00               	movlw	0
  8305  004520  6E4A               	movwf	___fldiv@aexp^0,c
  8306  004522  EFCB  F022         	goto	l709
  8307  004526                     l2947:
  8308  004526  504A               	movf	___fldiv@aexp^0,w,c
  8309  004528  B4D8               	btfsc	status,2,c
  8310  00452A  EF99  F022         	goto	u2881
  8311  00452E  EF9B  F022         	goto	u2880
  8312  004532                     u2881:
  8313  004532  EFB2  F022         	goto	l2955
  8314  004536                     u2880:
  8315  004536  90D8               	bcf	status,0,c
  8316  004538  363E               	rlcf	___fldiv@rem^0,f,c
  8317  00453A  363F               	rlcf	(___fldiv@rem+1)^0,f,c
  8318  00453C  3640               	rlcf	(___fldiv@rem+2)^0,f,c
  8319  00453E  3641               	rlcf	(___fldiv@rem+3)^0,f,c
  8320  004540  90D8               	bcf	status,0,c
  8321  004542  3632               	rlcf	___fldiv@b^0,f,c
  8322  004544  3633               	rlcf	(___fldiv@b+1)^0,f,c
  8323  004546  3634               	rlcf	(___fldiv@b+2)^0,f,c
  8324  004548  3635               	rlcf	(___fldiv@b+3)^0,f,c
  8325  00454A  AE48               	btfss	(___fldiv@grs+3)^0,7,c
  8326  00454C  EFAA  F022         	goto	u2891
  8327  004550  EFAC  F022         	goto	u2890
  8328  004554                     u2891:
  8329  004554  EFAD  F022         	goto	l712
  8330  004558                     u2890:
  8331  004558  8032               	bsf	___fldiv@b^0,0,c
  8332  00455A                     l712:
  8333  00455A  90D8               	bcf	status,0,c
  8334  00455C  3645               	rlcf	___fldiv@grs^0,f,c
  8335  00455E  3646               	rlcf	(___fldiv@grs+1)^0,f,c
  8336  004560  3647               	rlcf	(___fldiv@grs+2)^0,f,c
  8337  004562  3648               	rlcf	(___fldiv@grs+3)^0,f,c
  8338  004564                     l2955:
  8339  004564  5036               	movf	___fldiv@a^0,w,c
  8340  004566  5C3E               	subwf	___fldiv@rem^0,w,c
  8341  004568  5037               	movf	(___fldiv@a+1)^0,w,c
  8342  00456A  583F               	subwfb	(___fldiv@rem+1)^0,w,c
  8343  00456C  5038               	movf	(___fldiv@a+2)^0,w,c
  8344  00456E  5840               	subwfb	(___fldiv@rem+2)^0,w,c
  8345  004570  5039               	movf	(___fldiv@a+3)^0,w,c
  8346  004572  5841               	subwfb	(___fldiv@rem+3)^0,w,c
  8347  004574  A0D8               	btfss	status,0,c
  8348  004576  EFBF  F022         	goto	u2901
  8349  00457A  EFC1  F022         	goto	u2900
  8350  00457E                     u2901:
  8351  00457E  EFCA  F022         	goto	l2961
  8352  004582                     u2900:
  8353  004582  8C48               	bsf	(___fldiv@grs+3)^0,6,c
  8354  004584  5036               	movf	___fldiv@a^0,w,c
  8355  004586  5E3E               	subwf	___fldiv@rem^0,f,c
  8356  004588  5037               	movf	(___fldiv@a+1)^0,w,c
  8357  00458A  5A3F               	subwfb	(___fldiv@rem+1)^0,f,c
  8358  00458C  5038               	movf	(___fldiv@a+2)^0,w,c
  8359  00458E  5A40               	subwfb	(___fldiv@rem+2)^0,f,c
  8360  004590  5039               	movf	(___fldiv@a+3)^0,w,c
  8361  004592  5A41               	subwfb	(___fldiv@rem+3)^0,f,c
  8362  004594                     l2961:
  8363  004594  2A4A               	incf	___fldiv@aexp^0,f,c
  8364  004596                     l709:
  8365  004596  0E19               	movlw	25
  8366  004598  644A               	cpfsgt	___fldiv@aexp^0,c
  8367  00459A  EFD1  F022         	goto	u2911
  8368  00459E  EFD3  F022         	goto	u2910
  8369  0045A2                     u2911:
  8370  0045A2  EF93  F022         	goto	l2947
  8371  0045A6                     u2910:
  8372  0045A6  503E               	movf	___fldiv@rem^0,w,c
  8373  0045A8  103F               	iorwf	(___fldiv@rem+1)^0,w,c
  8374  0045AA  1040               	iorwf	(___fldiv@rem+2)^0,w,c
  8375  0045AC  1041               	iorwf	(___fldiv@rem+3)^0,w,c
  8376  0045AE  B4D8               	btfsc	status,2,c
  8377  0045B0  EFDC  F022         	goto	u2921
  8378  0045B4  EFDE  F022         	goto	u2920
  8379  0045B8                     u2921:
  8380  0045B8  EFF6  F022         	goto	l2973
  8381  0045BC                     u2920:
  8382  0045BC  8045               	bsf	___fldiv@grs^0,0,c
  8383  0045BE  EFF6  F022         	goto	l2973
  8384  0045C2                     l2967:
  8385  0045C2  90D8               	bcf	status,0,c
  8386  0045C4  3632               	rlcf	___fldiv@b^0,f,c
  8387  0045C6  3633               	rlcf	(___fldiv@b+1)^0,f,c
  8388  0045C8  3634               	rlcf	(___fldiv@b+2)^0,f,c
  8389  0045CA  3635               	rlcf	(___fldiv@b+3)^0,f,c
  8390  0045CC  AE48               	btfss	(___fldiv@grs+3)^0,7,c
  8391  0045CE  EFEB  F022         	goto	u2931
  8392  0045D2  EFED  F022         	goto	u2930
  8393  0045D6                     u2931:
  8394  0045D6  EFEE  F022         	goto	l718
  8395  0045DA                     u2930:
  8396  0045DA  8032               	bsf	___fldiv@b^0,0,c
  8397  0045DC                     l718:
  8398  0045DC  90D8               	bcf	status,0,c
  8399  0045DE  3645               	rlcf	___fldiv@grs^0,f,c
  8400  0045E0  3646               	rlcf	(___fldiv@grs+1)^0,f,c
  8401  0045E2  3647               	rlcf	(___fldiv@grs+2)^0,f,c
  8402  0045E4  3648               	rlcf	(___fldiv@grs+3)^0,f,c
  8403  0045E6  0643               	decf	___fldiv@new_exp^0,f,c
  8404  0045E8  A0D8               	btfss	status,0,c
  8405  0045EA  0644               	decf	(___fldiv@new_exp+1)^0,f,c
  8406  0045EC                     l2973:
  8407  0045EC  AE34               	btfss	(___fldiv@b+2)^0,7,c
  8408  0045EE  EFFB  F022         	goto	u2941
  8409  0045F2  EFFD  F022         	goto	u2940
  8410  0045F6                     u2941:
  8411  0045F6  EFE1  F022         	goto	l2967
  8412  0045FA                     u2940:
  8413  0045FA  0E00               	movlw	0
  8414  0045FC  6E4A               	movwf	___fldiv@aexp^0,c
  8415  0045FE  AE48               	btfss	(___fldiv@grs+3)^0,7,c
  8416  004600  EF04  F023         	goto	u2951
  8417  004604  EF06  F023         	goto	u2950
  8418  004608                     u2951:
  8419  004608  EF2A  F023         	goto	l720
  8420  00460C                     u2950:
  8421  00460C  0EFF               	movlw	255
  8422  00460E  1445               	andwf	___fldiv@grs^0,w,c
  8423  004610  6E3A               	movwf	??___fldiv^0,c
  8424  004612  0EFF               	movlw	255
  8425  004614  1446               	andwf	(___fldiv@grs+1)^0,w,c
  8426  004616  6E3B               	movwf	(??___fldiv+1)^0,c
  8427  004618  0EFF               	movlw	255
  8428  00461A  1447               	andwf	(___fldiv@grs+2)^0,w,c
  8429  00461C  6E3C               	movwf	(??___fldiv+2)^0,c
  8430  00461E  0E7F               	movlw	127
  8431  004620  1448               	andwf	(___fldiv@grs+3)^0,w,c
  8432  004622  6E3D               	movwf	(??___fldiv+3)^0,c
  8433  004624  503A               	movf	??___fldiv^0,w,c
  8434  004626  103B               	iorwf	(??___fldiv+1)^0,w,c
  8435  004628  103C               	iorwf	(??___fldiv+2)^0,w,c
  8436  00462A  103D               	iorwf	(??___fldiv+3)^0,w,c
  8437  00462C  B4D8               	btfsc	status,2,c
  8438  00462E  EF1B  F023         	goto	u2961
  8439  004632  EF1D  F023         	goto	u2960
  8440  004636                     u2961:
  8441  004636  EF21  F023         	goto	l721
  8442  00463A                     u2960:
  8443  00463A                     l2981:
  8444  00463A  0E01               	movlw	1
  8445  00463C  6E4A               	movwf	___fldiv@aexp^0,c
  8446  00463E  EF2A  F023         	goto	l720
  8447  004642                     l721:
  8448  004642  A032               	btfss	___fldiv@b^0,0,c
  8449  004644  EF26  F023         	goto	u2971
  8450  004648  EF28  F023         	goto	u2970
  8451  00464C                     u2971:
  8452  00464C  EF2A  F023         	goto	l720
  8453  004650                     u2970:
  8454  004650  EF1D  F023         	goto	l2981
  8455  004654                     l720:
  8456  004654  504A               	movf	___fldiv@aexp^0,w,c
  8457  004656  B4D8               	btfsc	status,2,c
  8458  004658  EF30  F023         	goto	u2981
  8459  00465C  EF32  F023         	goto	u2980
  8460  004660                     u2981:
  8461  004660  EF56  F023         	goto	l2993
  8462  004664                     u2980:
  8463  004664  0E01               	movlw	1
  8464  004666  2632               	addwf	___fldiv@b^0,f,c
  8465  004668  0E00               	movlw	0
  8466  00466A  2233               	addwfc	(___fldiv@b+1)^0,f,c
  8467  00466C  2234               	addwfc	(___fldiv@b+2)^0,f,c
  8468  00466E  2235               	addwfc	(___fldiv@b+3)^0,f,c
  8469  004670  A035               	btfss	(___fldiv@b+3)^0,0,c
  8470  004672  EF3D  F023         	goto	u2991
  8471  004676  EF3F  F023         	goto	u2990
  8472  00467A                     u2991:
  8473  00467A  EF56  F023         	goto	l2993
  8474  00467E                     u2990:
  8475  00467E  C032  F03A         	movff	___fldiv@b,??___fldiv
  8476  004682  C033  F03B         	movff	___fldiv@b+1,??___fldiv+1
  8477  004686  C034  F03C         	movff	___fldiv@b+2,??___fldiv+2
  8478  00468A  C035  F03D         	movff	___fldiv@b+3,??___fldiv+3
  8479  00468E  343D               	rlcf	(??___fldiv+3)^0,w,c
  8480  004690  323D               	rrcf	(??___fldiv+3)^0,f,c
  8481  004692  323C               	rrcf	(??___fldiv+2)^0,f,c
  8482  004694  323B               	rrcf	(??___fldiv+1)^0,f,c
  8483  004696  323A               	rrcf	??___fldiv^0,f,c
  8484  004698  C03A  F032         	movff	??___fldiv,___fldiv@b
  8485  00469C  C03B  F033         	movff	??___fldiv+1,___fldiv@b+1
  8486  0046A0  C03C  F034         	movff	??___fldiv+2,___fldiv@b+2
  8487  0046A4  C03D  F035         	movff	??___fldiv+3,___fldiv@b+3
  8488  0046A8  4A43               	infsnz	___fldiv@new_exp^0,f,c
  8489  0046AA  2A44               	incf	(___fldiv@new_exp+1)^0,f,c
  8490  0046AC                     l2993:
  8491  0046AC  BE44               	btfsc	(___fldiv@new_exp+1)^0,7,c
  8492  0046AE  EF61  F023         	goto	u3001
  8493  0046B2  5044               	movf	(___fldiv@new_exp+1)^0,w,c
  8494  0046B4  E108               	bnz	u3000
  8495  0046B6  2843               	incf	___fldiv@new_exp^0,w,c
  8496  0046B8  A0D8               	btfss	status,0,c
  8497  0046BA  EF61  F023         	goto	u3001
  8498  0046BE  EF63  F023         	goto	u3000
  8499  0046C2                     u3001:
  8500  0046C2  EF6E  F023         	goto	l2997
  8501  0046C6                     u3000:
  8502  0046C6  0E00               	movlw	0
  8503  0046C8  6E44               	movwf	(___fldiv@new_exp+1)^0,c
  8504  0046CA  6843               	setf	___fldiv@new_exp^0,c
  8505  0046CC  0E00               	movlw	0
  8506  0046CE  6E32               	movwf	___fldiv@b^0,c
  8507  0046D0  0E00               	movlw	0
  8508  0046D2  6E33               	movwf	(___fldiv@b+1)^0,c
  8509  0046D4  0E00               	movlw	0
  8510  0046D6  6E34               	movwf	(___fldiv@b+2)^0,c
  8511  0046D8  0E00               	movlw	0
  8512  0046DA  6E35               	movwf	(___fldiv@b+3)^0,c
  8513  0046DC                     l2997:
  8514  0046DC  BE44               	btfsc	(___fldiv@new_exp+1)^0,7,c
  8515  0046DE  EF7B  F023         	goto	u3010
  8516  0046E2  5044               	movf	(___fldiv@new_exp+1)^0,w,c
  8517  0046E4  E106               	bnz	u3011
  8518  0046E6  0443               	decf	___fldiv@new_exp^0,w,c
  8519  0046E8  B0D8               	btfsc	status,0,c
  8520  0046EA  EF79  F023         	goto	u3011
  8521  0046EE  EF7B  F023         	goto	u3010
  8522  0046F2                     u3011:
  8523  0046F2  EF89  F023         	goto	l3001
  8524  0046F6                     u3010:
  8525  0046F6  0E00               	movlw	0
  8526  0046F8  6E44               	movwf	(___fldiv@new_exp+1)^0,c
  8527  0046FA  0E00               	movlw	0
  8528  0046FC  6E43               	movwf	___fldiv@new_exp^0,c
  8529  0046FE  0E00               	movlw	0
  8530  004700  6E32               	movwf	___fldiv@b^0,c
  8531  004702  0E00               	movlw	0
  8532  004704  6E33               	movwf	(___fldiv@b+1)^0,c
  8533  004706  0E00               	movlw	0
  8534  004708  6E34               	movwf	(___fldiv@b+2)^0,c
  8535  00470A  0E00               	movlw	0
  8536  00470C  6E35               	movwf	(___fldiv@b+3)^0,c
  8537  00470E  0E00               	movlw	0
  8538  004710  6E42               	movwf	___fldiv@sign^0,c
  8539  004712                     l3001:
  8540  004712  C043  F049         	movff	___fldiv@new_exp,___fldiv@bexp
  8541  004716  A049               	btfss	___fldiv@bexp^0,0,c
  8542  004718  EF90  F023         	goto	u3021
  8543  00471C  EF92  F023         	goto	u3020
  8544  004720                     u3021:
  8545  004720  EF95  F023         	goto	l3007
  8546  004724                     u3020:
  8547  004724  8E34               	bsf	(___fldiv@b+2)^0,7,c
  8548  004726  EF96  F023         	goto	l3009
  8549  00472A                     l3007:
  8550  00472A  9E34               	bcf	(___fldiv@b+2)^0,7,c
  8551  00472C                     l3009:
  8552  00472C  90D8               	bcf	status,0,c
  8553  00472E  3049               	rrcf	___fldiv@bexp^0,w,c
  8554  004730  6E35               	movwf	(___fldiv@b+3)^0,c
  8555  004732  EF4C  F022         	goto	l2923
  8556  004736                     l707:
  8557  004736  0012               	return		;funcret
  8558  004738                     __end_of___fldiv:
  8559                           	callstack 0
  8560                           
  8561 ;; *************** function _char_to_seg *****************
  8562 ;; Defined at:
  8563 ;;		line 147 in file "main.c"
  8564 ;; Parameters:    Size  Location     Type
  8565 ;;  num             1    wreg     unsigned char 
  8566 ;; Auto vars:     Size  Location     Type
  8567 ;;  num             1    2[COMRAM] unsigned char 
  8568 ;;  segments        1    3[COMRAM] unsigned char 
  8569 ;; Return value:  Size  Location     Type
  8570 ;;                  1    wreg      unsigned char 
  8571 ;; Registers used:
  8572 ;;		wreg, status,2, status,0
  8573 ;; Tracked objects:
  8574 ;;		On entry : 0/0
  8575 ;;		On exit  : 0/0
  8576 ;;		Unchanged: 0/0
  8577 ;; Data sizes:     COMRAM   BANK0   BANK1   BANK2   BANK3   BANK4   BANK5   BANK6   BANK7
  8578 ;;      Params:         0       0       0       0       0       0       0       0       0
  8579 ;;      Locals:         2       0       0       0       0       0       0       0       0
  8580 ;;      Temps:          2       0       0       0       0       0       0       0       0
  8581 ;;      Totals:         4       0       0       0       0       0       0       0       0
  8582 ;;Total ram usage:        4 bytes
  8583 ;; Hardware stack levels used: 1
  8584 ;; This function calls:
  8585 ;;		Nothing
  8586 ;; This function is called by:
  8587 ;;		_send_to_disp
  8588 ;; This function uses a non-reentrant model
  8589 ;;
  8590                           
  8591                           	psect	text14
  8592  004DC4                     __ptext14:
  8593                           	callstack 0
  8594  004DC4                     _char_to_seg:
  8595                           	callstack 29
  8596                           
  8597                           ;incstack = 0
  8598                           ;char_to_seg@num stored from wreg
  8599  004DC4  6E03               	movwf	char_to_seg@num^0,c
  8600  004DC6                     
  8601                           ;main.c: 148:     uint8_t segments;;main.c: 149:     switch(num){
  8602  004DC6  EF25  F027         	goto	l3693
  8603  004DCA                     l3657:
  8604  004DCA  0E3F               	movlw	63
  8605  004DCC  6E04               	movwf	char_to_seg@segments^0,c
  8606  004DCE  EF72  F027         	goto	l3695
  8607  004DD2                     l3659:
  8608  004DD2  0E06               	movlw	6
  8609  004DD4  6E04               	movwf	char_to_seg@segments^0,c
  8610  004DD6  EF72  F027         	goto	l3695
  8611  004DDA                     l3661:
  8612  004DDA  0E5B               	movlw	91
  8613  004DDC  6E04               	movwf	char_to_seg@segments^0,c
  8614  004DDE  EF72  F027         	goto	l3695
  8615  004DE2                     l3663:
  8616  004DE2  0E4F               	movlw	79
  8617  004DE4  6E04               	movwf	char_to_seg@segments^0,c
  8618  004DE6  EF72  F027         	goto	l3695
  8619  004DEA                     l3665:
  8620  004DEA  0E66               	movlw	102
  8621  004DEC  6E04               	movwf	char_to_seg@segments^0,c
  8622  004DEE  EF72  F027         	goto	l3695
  8623  004DF2                     l3667:
  8624  004DF2  0E6D               	movlw	109
  8625  004DF4  6E04               	movwf	char_to_seg@segments^0,c
  8626  004DF6  EF72  F027         	goto	l3695
  8627  004DFA                     l3669:
  8628  004DFA  0E7D               	movlw	125
  8629  004DFC  6E04               	movwf	char_to_seg@segments^0,c
  8630  004DFE  EF72  F027         	goto	l3695
  8631  004E02                     l3671:
  8632  004E02  0E07               	movlw	7
  8633  004E04  6E04               	movwf	char_to_seg@segments^0,c
  8634  004E06  EF72  F027         	goto	l3695
  8635  004E0A                     l3673:
  8636  004E0A  0E7F               	movlw	127
  8637  004E0C  6E04               	movwf	char_to_seg@segments^0,c
  8638  004E0E  EF72  F027         	goto	l3695
  8639  004E12                     l3675:
  8640  004E12  0E67               	movlw	103
  8641  004E14  6E04               	movwf	char_to_seg@segments^0,c
  8642  004E16  EF72  F027         	goto	l3695
  8643  004E1A                     l3677:
  8644  004E1A  0E77               	movlw	119
  8645  004E1C  6E04               	movwf	char_to_seg@segments^0,c
  8646  004E1E  EF72  F027         	goto	l3695
  8647  004E22                     l3679:
  8648  004E22  0E7C               	movlw	124
  8649  004E24  6E04               	movwf	char_to_seg@segments^0,c
  8650  004E26  EF72  F027         	goto	l3695
  8651  004E2A                     l3681:
  8652  004E2A  0E58               	movlw	88
  8653  004E2C  6E04               	movwf	char_to_seg@segments^0,c
  8654  004E2E  EF72  F027         	goto	l3695
  8655  004E32                     l3683:
  8656  004E32  0E5E               	movlw	94
  8657  004E34  6E04               	movwf	char_to_seg@segments^0,c
  8658  004E36  EF72  F027         	goto	l3695
  8659  004E3A                     l3685:
  8660  004E3A  0E79               	movlw	121
  8661  004E3C  6E04               	movwf	char_to_seg@segments^0,c
  8662  004E3E  EF72  F027         	goto	l3695
  8663  004E42                     l3687:
  8664  004E42  0E71               	movlw	113
  8665  004E44  6E04               	movwf	char_to_seg@segments^0,c
  8666  004E46  EF72  F027         	goto	l3695
  8667  004E4A                     l3693:
  8668  004E4A  5003               	movf	char_to_seg@num^0,w,c
  8669  004E4C  6E01               	movwf	??_char_to_seg^0,c
  8670  004E4E  6A02               	clrf	(??_char_to_seg+1)^0,c
  8671                           
  8672                           ; Switch on 2 bytes has been partitioned into a top level switch of size 1, and 1 sub-sw
      +                          itches
  8673                           ; Switch size 1, requested type "simple"
  8674                           ; Number of cases is 1, Range of values is 0 to 0
  8675                           ; switch strategies available:
  8676                           ; Name         Instructions Cycles
  8677                           ; simple_byte            4     3 (average)
  8678                           ;	Chosen strategy is simple_byte
  8679  004E50  5002               	movf	(??_char_to_seg+1)^0,w,c
  8680  004E52  0A00               	xorlw	0	; case 0
  8681  004E54  B4D8               	btfsc	status,2,c
  8682  004E56  EF2F  F027         	goto	l4007
  8683  004E5A  EFE5  F026         	goto	l3657
  8684  004E5E                     l4007:
  8685                           
  8686                           ; Switch size 1, requested type "simple"
  8687                           ; Number of cases is 16, Range of values is 0 to 15
  8688                           ; switch strategies available:
  8689                           ; Name         Instructions Cycles
  8690                           ; simple_byte           49    25 (average)
  8691                           ;	Chosen strategy is simple_byte
  8692  004E5E  5001               	movf	??_char_to_seg^0,w,c
  8693  004E60  0A00               	xorlw	0	; case 0
  8694  004E62  B4D8               	btfsc	status,2,c
  8695  004E64  EFE5  F026         	goto	l3657
  8696  004E68  0A01               	xorlw	1	; case 1
  8697  004E6A  B4D8               	btfsc	status,2,c
  8698  004E6C  EFE9  F026         	goto	l3659
  8699  004E70  0A03               	xorlw	3	; case 2
  8700  004E72  B4D8               	btfsc	status,2,c
  8701  004E74  EFED  F026         	goto	l3661
  8702  004E78  0A01               	xorlw	1	; case 3
  8703  004E7A  B4D8               	btfsc	status,2,c
  8704  004E7C  EFF1  F026         	goto	l3663
  8705  004E80  0A07               	xorlw	7	; case 4
  8706  004E82  B4D8               	btfsc	status,2,c
  8707  004E84  EFF5  F026         	goto	l3665
  8708  004E88  0A01               	xorlw	1	; case 5
  8709  004E8A  B4D8               	btfsc	status,2,c
  8710  004E8C  EFF9  F026         	goto	l3667
  8711  004E90  0A03               	xorlw	3	; case 6
  8712  004E92  B4D8               	btfsc	status,2,c
  8713  004E94  EFFD  F026         	goto	l3669
  8714  004E98  0A01               	xorlw	1	; case 7
  8715  004E9A  B4D8               	btfsc	status,2,c
  8716  004E9C  EF01  F027         	goto	l3671
  8717  004EA0  0A0F               	xorlw	15	; case 8
  8718  004EA2  B4D8               	btfsc	status,2,c
  8719  004EA4  EF05  F027         	goto	l3673
  8720  004EA8  0A01               	xorlw	1	; case 9
  8721  004EAA  B4D8               	btfsc	status,2,c
  8722  004EAC  EF09  F027         	goto	l3675
  8723  004EB0  0A03               	xorlw	3	; case 10
  8724  004EB2  B4D8               	btfsc	status,2,c
  8725  004EB4  EF0D  F027         	goto	l3677
  8726  004EB8  0A01               	xorlw	1	; case 11
  8727  004EBA  B4D8               	btfsc	status,2,c
  8728  004EBC  EF11  F027         	goto	l3679
  8729  004EC0  0A07               	xorlw	7	; case 12
  8730  004EC2  B4D8               	btfsc	status,2,c
  8731  004EC4  EF15  F027         	goto	l3681
  8732  004EC8  0A01               	xorlw	1	; case 13
  8733  004ECA  B4D8               	btfsc	status,2,c
  8734  004ECC  EF19  F027         	goto	l3683
  8735  004ED0  0A03               	xorlw	3	; case 14
  8736  004ED2  B4D8               	btfsc	status,2,c
  8737  004ED4  EF1D  F027         	goto	l3685
  8738  004ED8  0A01               	xorlw	1	; case 15
  8739  004EDA  B4D8               	btfsc	status,2,c
  8740  004EDC  EF21  F027         	goto	l3687
  8741  004EE0  EFE5  F026         	goto	l3657
  8742  004EE4                     l3695:
  8743                           
  8744                           ;main.c: 168:     return segments;
  8745  004EE4  5004               	movf	char_to_seg@segments^0,w,c
  8746  004EE6  0012               	return		;funcret
  8747  004EE8                     __end_of_char_to_seg:
  8748                           	callstack 0
  8749                           
  8750 ;; *************** function ___fltol *****************
  8751 ;; Defined at:
  8752 ;;		line 43 in file "C:\Program Files\Microchip\xc8\v2.36\pic\sources\c99\common\fltol.c"
  8753 ;; Parameters:    Size  Location     Type
  8754 ;;  f1              4   44[BANK0 ] unsigned char 
  8755 ;; Auto vars:     Size  Location     Type
  8756 ;;  exp1            1   88[COMRAM] unsigned char 
  8757 ;;  sign1           1   87[COMRAM] unsigned char 
  8758 ;; Return value:  Size  Location     Type
  8759 ;;                  4   44[BANK0 ] long 
  8760 ;; Registers used:
  8761 ;;		wreg, status,2, status,0
  8762 ;; Tracked objects:
  8763 ;;		On entry : 0/0
  8764 ;;		On exit  : 0/0
  8765 ;;		Unchanged: 0/0
  8766 ;; Data sizes:     COMRAM   BANK0   BANK1   BANK2   BANK3   BANK4   BANK5   BANK6   BANK7
  8767 ;;      Params:         0       4       0       0       0       0       0       0       0
  8768 ;;      Locals:         2       0       0       0       0       0       0       0       0
  8769 ;;      Temps:          4       0       0       0       0       0       0       0       0
  8770 ;;      Totals:         6       4       0       0       0       0       0       0       0
  8771 ;;Total ram usage:       10 bytes
  8772 ;; Hardware stack levels used: 1
  8773 ;; This function calls:
  8774 ;;		Nothing
  8775 ;; This function is called by:
  8776 ;;		_send_to_disp
  8777 ;; This function uses a non-reentrant model
  8778 ;;
  8779                           
  8780                           	psect	text15
  8781  004EE8                     __ptext15:
  8782                           	callstack 0
  8783  004EE8                     ___fltol:
  8784                           	callstack 29
  8785  004EE8  0100               	movlb	0	; () banked
  8786  004EEA  358E               	rlcf	(___fltol@f1+2)& (0+255),w,b
  8787  004EEC  358F               	rlcf	(___fltol@f1+3)& (0+255),w,b
  8788  004EEE  6E59               	movwf	___fltol@exp1^0,c
  8789  004EF0  5059               	movf	___fltol@exp1^0,w,c
  8790  004EF2  A4D8               	btfss	status,2,c
  8791  004EF4  EF7E  F027         	goto	u3921
  8792  004EF8  EF80  F027         	goto	u3920
  8793  004EFC                     u3921:
  8794  004EFC  EF8A  F027         	goto	l3709
  8795  004F00                     u3920:
  8796  004F00                     l3705:
  8797                           
  8798                           ; BSR set to: 0
  8799  004F00  0E00               	movlw	0
  8800  004F02  6F8C               	movwf	?___fltol& (0+255),b
  8801  004F04  0E00               	movlw	0
  8802  004F06  6F8D               	movwf	(?___fltol+1)& (0+255),b
  8803  004F08  0E00               	movlw	0
  8804  004F0A  6F8E               	movwf	(?___fltol+2)& (0+255),b
  8805  004F0C  0E00               	movlw	0
  8806  004F0E  6F8F               	movwf	(?___fltol+3)& (0+255),b
  8807  004F10  EFF7  F027         	goto	l422
  8808  004F14                     l3709:
  8809                           
  8810                           ; BSR set to: 0
  8811  004F14  C08C  F054         	movff	___fltol@f1,??___fltol
  8812  004F18  C08D  F055         	movff	___fltol@f1+1,??___fltol+1
  8813  004F1C  C08E  F056         	movff	___fltol@f1+2,??___fltol+2
  8814  004F20  C08F  F057         	movff	___fltol@f1+3,??___fltol+3
  8815  004F24  0E20               	movlw	32
  8816  004F26  EF9A  F027         	goto	u3930
  8817  004F2A                     u3935:
  8818  004F2A  90D8               	bcf	status,0,c
  8819  004F2C  3257               	rrcf	(??___fltol+3)^0,f,c
  8820  004F2E  3256               	rrcf	(??___fltol+2)^0,f,c
  8821  004F30  3255               	rrcf	(??___fltol+1)^0,f,c
  8822  004F32  3254               	rrcf	??___fltol^0,f,c
  8823  004F34                     u3930:
  8824  004F34  2EE8               	decfsz	wreg,f,c
  8825  004F36  EF95  F027         	goto	u3935
  8826  004F3A  5054               	movf	??___fltol^0,w,c
  8827  004F3C  6E58               	movwf	___fltol@sign1^0,c
  8828  004F3E                     
  8829                           ; BSR set to: 0
  8830  004F3E  8F8E               	bsf	(___fltol@f1+2)& (0+255),7,b
  8831  004F40                     
  8832                           ; BSR set to: 0
  8833  004F40  0EFF               	movlw	255
  8834  004F42  178C               	andwf	___fltol@f1& (0+255),f,b
  8835  004F44  0EFF               	movlw	255
  8836  004F46  178D               	andwf	(___fltol@f1+1)& (0+255),f,b
  8837  004F48  0EFF               	movlw	255
  8838  004F4A  178E               	andwf	(___fltol@f1+2)& (0+255),f,b
  8839  004F4C  0E00               	movlw	0
  8840  004F4E  178F               	andwf	(___fltol@f1+3)& (0+255),f,b
  8841  004F50                     
  8842                           ; BSR set to: 0
  8843  004F50  0E96               	movlw	150
  8844  004F52  5E59               	subwf	___fltol@exp1^0,f,c
  8845  004F54                     
  8846                           ; BSR set to: 0
  8847  004F54  BE59               	btfsc	___fltol@exp1^0,7,c
  8848  004F56  EFB1  F027         	goto	u3940
  8849  004F5A  EFAF  F027         	goto	u3941
  8850  004F5E                     u3941:
  8851  004F5E  EFC7  F027         	goto	l3729
  8852  004F62                     u3940:
  8853  004F62                     
  8854                           ; BSR set to: 0
  8855  004F62  5059               	movf	___fltol@exp1^0,w,c
  8856  004F64  0A80               	xorlw	128
  8857  004F66  0F97               	addlw	151
  8858  004F68  B0D8               	btfsc	status,0,c
  8859  004F6A  EFB9  F027         	goto	u3951
  8860  004F6E  EFBB  F027         	goto	u3950
  8861  004F72                     u3951:
  8862  004F72  EFBD  F027         	goto	l3725
  8863  004F76                     u3950:
  8864  004F76  EF80  F027         	goto	l3705
  8865  004F7A                     l3725:
  8866                           
  8867                           ; BSR set to: 0
  8868  004F7A  90D8               	bcf	status,0,c
  8869  004F7C  338F               	rrcf	(___fltol@f1+3)& (0+255),f,b
  8870  004F7E  338E               	rrcf	(___fltol@f1+2)& (0+255),f,b
  8871  004F80  338D               	rrcf	(___fltol@f1+1)& (0+255),f,b
  8872  004F82  338C               	rrcf	___fltol@f1& (0+255),f,b
  8873  004F84                     
  8874                           ; BSR set to: 0
  8875  004F84  3E59               	incfsz	___fltol@exp1^0,f,c
  8876  004F86  EFBD  F027         	goto	l3725
  8877  004F8A  EFDF  F027         	goto	l3739
  8878  004F8E                     l3729:
  8879                           
  8880                           ; BSR set to: 0
  8881  004F8E  0E1F               	movlw	31
  8882  004F90  6459               	cpfsgt	___fltol@exp1^0,c
  8883  004F92  EFCD  F027         	goto	u3961
  8884  004F96  EFCF  F027         	goto	u3960
  8885  004F9A                     u3961:
  8886  004F9A  EFD7  F027         	goto	l3737
  8887  004F9E                     u3960:
  8888  004F9E  EF80  F027         	goto	l3705
  8889  004FA2                     l3735:
  8890                           
  8891                           ; BSR set to: 0
  8892  004FA2  90D8               	bcf	status,0,c
  8893  004FA4  378C               	rlcf	___fltol@f1& (0+255),f,b
  8894  004FA6  378D               	rlcf	(___fltol@f1+1)& (0+255),f,b
  8895  004FA8  378E               	rlcf	(___fltol@f1+2)& (0+255),f,b
  8896  004FAA  378F               	rlcf	(___fltol@f1+3)& (0+255),f,b
  8897  004FAC  0659               	decf	___fltol@exp1^0,f,c
  8898  004FAE                     l3737:
  8899                           
  8900                           ; BSR set to: 0
  8901  004FAE  5059               	movf	___fltol@exp1^0,w,c
  8902  004FB0  A4D8               	btfss	status,2,c
  8903  004FB2  EFDD  F027         	goto	u3971
  8904  004FB6  EFDF  F027         	goto	u3970
  8905  004FBA                     u3971:
  8906  004FBA  EFD1  F027         	goto	l3735
  8907  004FBE                     u3970:
  8908  004FBE                     l3739:
  8909                           
  8910                           ; BSR set to: 0
  8911  004FBE  5058               	movf	___fltol@sign1^0,w,c
  8912  004FC0  B4D8               	btfsc	status,2,c
  8913  004FC2  EFE5  F027         	goto	u3981
  8914  004FC6  EFE7  F027         	goto	u3980
  8915  004FCA                     u3981:
  8916  004FCA  EFEF  F027         	goto	l3743
  8917  004FCE                     u3980:
  8918  004FCE                     
  8919                           ; BSR set to: 0
  8920  004FCE  1F8F               	comf	(___fltol@f1+3)& (0+255),f,b
  8921  004FD0  1F8E               	comf	(___fltol@f1+2)& (0+255),f,b
  8922  004FD2  1F8D               	comf	(___fltol@f1+1)& (0+255),f,b
  8923  004FD4  6D8C               	negf	___fltol@f1& (0+255),b
  8924  004FD6  0E00               	movlw	0
  8925  004FD8  238D               	addwfc	(___fltol@f1+1)& (0+255),f,b
  8926  004FDA  238E               	addwfc	(___fltol@f1+2)& (0+255),f,b
  8927  004FDC  238F               	addwfc	(___fltol@f1+3)& (0+255),f,b
  8928  004FDE                     l3743:
  8929                           
  8930                           ; BSR set to: 0
  8931  004FDE  C08C  F08C         	movff	___fltol@f1,?___fltol
  8932  004FE2  C08D  F08D         	movff	___fltol@f1+1,?___fltol+1
  8933  004FE6  C08E  F08E         	movff	___fltol@f1+2,?___fltol+2
  8934  004FEA  C08F  F08F         	movff	___fltol@f1+3,?___fltol+3
  8935  004FEE                     l422:
  8936                           
  8937                           ; BSR set to: 0
  8938  004FEE  0012               	return		;funcret
  8939  004FF0                     __end_of___fltol:
  8940                           	callstack 0
  8941                           
  8942 ;; *************** function _portsInit *****************
  8943 ;; Defined at:
  8944 ;;		line 85 in file "main.c"
  8945 ;; Parameters:    Size  Location     Type
  8946 ;;		None
  8947 ;; Auto vars:     Size  Location     Type
  8948 ;;		None
  8949 ;; Return value:  Size  Location     Type
  8950 ;;                  1    wreg      void 
  8951 ;; Registers used:
  8952 ;;		wreg, status,2
  8953 ;; Tracked objects:
  8954 ;;		On entry : 0/0
  8955 ;;		On exit  : 0/0
  8956 ;;		Unchanged: 0/0
  8957 ;; Data sizes:     COMRAM   BANK0   BANK1   BANK2   BANK3   BANK4   BANK5   BANK6   BANK7
  8958 ;;      Params:         0       0       0       0       0       0       0       0       0
  8959 ;;      Locals:         0       0       0       0       0       0       0       0       0
  8960 ;;      Temps:          0       0       0       0       0       0       0       0       0
  8961 ;;      Totals:         0       0       0       0       0       0       0       0       0
  8962 ;;Total ram usage:        0 bytes
  8963 ;; Hardware stack levels used: 1
  8964 ;; This function calls:
  8965 ;;		Nothing
  8966 ;; This function is called by:
  8967 ;;		_main
  8968 ;; This function uses a non-reentrant model
  8969 ;;
  8970                           
  8971                           	psect	text16
  8972  0052A4                     __ptext16:
  8973                           	callstack 0
  8974  0052A4                     _portsInit:
  8975                           	callstack 30
  8976  0052A4                     
  8977                           ;main.c: 86:     ANSELA = digital;
  8978  0052A4  0E00               	movlw	0
  8979  0052A6  010F               	movlb	15	; () banked
  8980  0052A8  6F5B               	movwf	91,b	;volatile
  8981                           
  8982                           ;main.c: 87:     TRISA = 0xF0;
  8983  0052AA  0EF0               	movlw	240
  8984  0052AC  6E92               	movwf	146,c	;volatile
  8985                           
  8986                           ;main.c: 88:     ANSELB = digital;
  8987  0052AE  0E00               	movlw	0
  8988  0052B0  6F5C               	movwf	92,b	;volatile
  8989                           
  8990                           ;main.c: 89:     TRISB = 0x00;
  8991  0052B2  0E00               	movlw	0
  8992  0052B4  6E93               	movwf	147,c	;volatile
  8993                           
  8994                           ;main.c: 90:     ANSELD = digital;
  8995  0052B6  0E00               	movlw	0
  8996  0052B8  6F5E               	movwf	94,b	;volatile
  8997                           
  8998                           ;main.c: 91:     TRISD = 0x00;
  8999  0052BA  0E00               	movlw	0
  9000  0052BC  6E95               	movwf	149,c	;volatile
  9001                           
  9002                           ;main.c: 92:     OSCCON = 0x74;
  9003  0052BE  0E74               	movlw	116
  9004  0052C0  6ED3               	movwf	211,c	;volatile
  9005  0052C2                     
  9006                           ; BSR set to: 15
  9007  0052C2  0012               	return		;funcret
  9008  0052C4                     __end_of_portsInit:
  9009                           	callstack 0
  9010                           
  9011 ;; *************** function _key_scanner *****************
  9012 ;; Defined at:
  9013 ;;		line 96 in file "main.c"
  9014 ;; Parameters:    Size  Location     Type
  9015 ;;		None
  9016 ;; Auto vars:     Size  Location     Type
  9017 ;;		None
  9018 ;; Return value:  Size  Location     Type
  9019 ;;                  1    wreg      unsigned char 
  9020 ;; Registers used:
  9021 ;;		wreg
  9022 ;; Tracked objects:
  9023 ;;		On entry : 0/0
  9024 ;;		On exit  : 0/0
  9025 ;;		Unchanged: 0/0
  9026 ;; Data sizes:     COMRAM   BANK0   BANK1   BANK2   BANK3   BANK4   BANK5   BANK6   BANK7
  9027 ;;      Params:         0       0       0       0       0       0       0       0       0
  9028 ;;      Locals:         0       0       0       0       0       0       0       0       0
  9029 ;;      Temps:          1       0       0       0       0       0       0       0       0
  9030 ;;      Totals:         1       0       0       0       0       0       0       0       0
  9031 ;;Total ram usage:        1 bytes
  9032 ;; Hardware stack levels used: 1
  9033 ;; This function calls:
  9034 ;;		Nothing
  9035 ;; This function is called by:
  9036 ;;		_main
  9037 ;; This function uses a non-reentrant model
  9038 ;;
  9039                           
  9040                           	psect	text17
  9041  004738                     __ptext17:
  9042                           	callstack 0
  9043  004738                     _key_scanner:
  9044                           	callstack 30
  9045  004738                     
  9046                           ;main.c: 97:     LATAbits.LA0 = 0;
  9047  004738  9089               	bcf	137,0,c	;volatile
  9048                           
  9049                           ;main.c: 98:     LATAbits.LA1 = 1;
  9050  00473A  8289               	bsf	137,1,c	;volatile
  9051                           
  9052                           ;main.c: 99:     LATAbits.LA2 = 1;
  9053  00473C  8489               	bsf	137,2,c	;volatile
  9054                           
  9055                           ;main.c: 100:     LATAbits.LA3 = 1;
  9056  00473E  8689               	bsf	137,3,c	;volatile
  9057  004740                     
  9058                           ;main.c: 101:     _delay((unsigned long)((10)*(8000000/4000.0)));
  9059  004740  0E1A               	movlw	26
  9060  004742  6E01               	movwf	??_key_scanner^0,c
  9061  004744  0EF8               	movlw	248
  9062  004746                     u4357:
  9063  004746  2EE8               	decfsz	wreg,f,c
  9064  004748  D7FE               	bra	u4357
  9065  00474A  2E01               	decfsz	??_key_scanner^0,f,c
  9066  00474C  D7FC               	bra	u4357
  9067  00474E  D000               	nop2	
  9068  004750                     
  9069                           ;main.c: 102:     if (PORTAbits.RA4 == 0) {_delay((unsigned long)((10)*(8000000/4000.0))
      +                          ); return 1;}
  9070  004750  B880               	btfsc	128,4,c	;volatile
  9071  004752  EFAD  F023         	goto	u3991
  9072  004756  EFAF  F023         	goto	u3990
  9073  00475A                     u3991:
  9074  00475A  EFBA  F023         	goto	l66
  9075  00475E                     u3990:
  9076  00475E  0E1A               	movlw	26
  9077  004760  6E01               	movwf	??_key_scanner^0,c
  9078  004762  0EF8               	movlw	248
  9079  004764                     u4367:
  9080  004764  2EE8               	decfsz	wreg,f,c
  9081  004766  D7FE               	bra	u4367
  9082  004768  2E01               	decfsz	??_key_scanner^0,f,c
  9083  00476A  D7FC               	bra	u4367
  9084  00476C  D000               	nop2	
  9085  00476E  0E01               	movlw	1
  9086  004770  EFED  F024         	goto	l67
  9087  004774                     l66:
  9088  004774  BA80               	btfsc	128,5,c	;volatile
  9089  004776  EFBF  F023         	goto	u4001
  9090  00477A  EFC1  F023         	goto	u4000
  9091  00477E                     u4001:
  9092  00477E  EFCC  F023         	goto	l69
  9093  004782                     u4000:
  9094  004782  0E1A               	movlw	26
  9095  004784  6E01               	movwf	??_key_scanner^0,c
  9096  004786  0EF8               	movlw	248
  9097  004788                     u4377:
  9098  004788  2EE8               	decfsz	wreg,f,c
  9099  00478A  D7FE               	bra	u4377
  9100  00478C  2E01               	decfsz	??_key_scanner^0,f,c
  9101  00478E  D7FC               	bra	u4377
  9102  004790  D000               	nop2	
  9103  004792  0E02               	movlw	2
  9104  004794  EFED  F024         	goto	l67
  9105  004798                     l69:
  9106  004798  BC80               	btfsc	128,6,c	;volatile
  9107  00479A  EFD1  F023         	goto	u4011
  9108  00479E  EFD3  F023         	goto	u4010
  9109  0047A2                     u4011:
  9110  0047A2  EFDE  F023         	goto	l71
  9111  0047A6                     u4010:
  9112  0047A6  0E1A               	movlw	26
  9113  0047A8  6E01               	movwf	??_key_scanner^0,c
  9114  0047AA  0EF8               	movlw	248
  9115  0047AC                     u4387:
  9116  0047AC  2EE8               	decfsz	wreg,f,c
  9117  0047AE  D7FE               	bra	u4387
  9118  0047B0  2E01               	decfsz	??_key_scanner^0,f,c
  9119  0047B2  D7FC               	bra	u4387
  9120  0047B4  D000               	nop2	
  9121  0047B6  0E03               	movlw	3
  9122  0047B8  EFED  F024         	goto	l67
  9123  0047BC                     l71:
  9124  0047BC  BE80               	btfsc	128,7,c	;volatile
  9125  0047BE  EFE3  F023         	goto	u4021
  9126  0047C2  EFE5  F023         	goto	u4020
  9127  0047C6                     u4021:
  9128  0047C6  EFF0  F023         	goto	l68
  9129  0047CA                     u4020:
  9130  0047CA  0E1A               	movlw	26
  9131  0047CC  6E01               	movwf	??_key_scanner^0,c
  9132  0047CE  0EF8               	movlw	248
  9133  0047D0                     u4397:
  9134  0047D0  2EE8               	decfsz	wreg,f,c
  9135  0047D2  D7FE               	bra	u4397
  9136  0047D4  2E01               	decfsz	??_key_scanner^0,f,c
  9137  0047D6  D7FC               	bra	u4397
  9138  0047D8  D000               	nop2	
  9139  0047DA  0E0A               	movlw	10
  9140  0047DC  EFED  F024         	goto	l67
  9141  0047E0                     l68:
  9142                           
  9143                           ;main.c: 106:     LATAbits.LA0 = 1;
  9144  0047E0  8089               	bsf	137,0,c	;volatile
  9145                           
  9146                           ;main.c: 107:     LATAbits.LA1 = 0;
  9147  0047E2  9289               	bcf	137,1,c	;volatile
  9148                           
  9149                           ;main.c: 108:     LATAbits.LA2 = 1;
  9150  0047E4  8489               	bsf	137,2,c	;volatile
  9151                           
  9152                           ;main.c: 109:     LATAbits.LA3 = 1;
  9153  0047E6  8689               	bsf	137,3,c	;volatile
  9154  0047E8                     
  9155                           ;main.c: 110:     _delay((unsigned long)((10)*(8000000/4000.0)));
  9156  0047E8  0E1A               	movlw	26
  9157  0047EA  6E01               	movwf	??_key_scanner^0,c
  9158  0047EC  0EF8               	movlw	248
  9159  0047EE                     u4407:
  9160  0047EE  2EE8               	decfsz	wreg,f,c
  9161  0047F0  D7FE               	bra	u4407
  9162  0047F2  2E01               	decfsz	??_key_scanner^0,f,c
  9163  0047F4  D7FC               	bra	u4407
  9164  0047F6  D000               	nop2	
  9165  0047F8                     
  9166                           ;main.c: 111:     if (PORTAbits.RA4 == 0) {_delay((unsigned long)((10)*(8000000/4000.0))
      +                          ); return 4;}
  9167  0047F8  B880               	btfsc	128,4,c	;volatile
  9168  0047FA  EF01  F024         	goto	u4031
  9169  0047FE  EF03  F024         	goto	u4030
  9170  004802                     u4031:
  9171  004802  EF0E  F024         	goto	l74
  9172  004806                     u4030:
  9173  004806  0E1A               	movlw	26
  9174  004808  6E01               	movwf	??_key_scanner^0,c
  9175  00480A  0EF8               	movlw	248
  9176  00480C                     u4417:
  9177  00480C  2EE8               	decfsz	wreg,f,c
  9178  00480E  D7FE               	bra	u4417
  9179  004810  2E01               	decfsz	??_key_scanner^0,f,c
  9180  004812  D7FC               	bra	u4417
  9181  004814  D000               	nop2	
  9182  004816  0E04               	movlw	4
  9183  004818  EFED  F024         	goto	l67
  9184  00481C                     l74:
  9185  00481C  BA80               	btfsc	128,5,c	;volatile
  9186  00481E  EF13  F024         	goto	u4041
  9187  004822  EF15  F024         	goto	u4040
  9188  004826                     u4041:
  9189  004826  EF20  F024         	goto	l76
  9190  00482A                     u4040:
  9191  00482A  0E1A               	movlw	26
  9192  00482C  6E01               	movwf	??_key_scanner^0,c
  9193  00482E  0EF8               	movlw	248
  9194  004830                     u4427:
  9195  004830  2EE8               	decfsz	wreg,f,c
  9196  004832  D7FE               	bra	u4427
  9197  004834  2E01               	decfsz	??_key_scanner^0,f,c
  9198  004836  D7FC               	bra	u4427
  9199  004838  D000               	nop2	
  9200  00483A  0E05               	movlw	5
  9201  00483C  EFED  F024         	goto	l67
  9202  004840                     l76:
  9203  004840  BC80               	btfsc	128,6,c	;volatile
  9204  004842  EF25  F024         	goto	u4051
  9205  004846  EF27  F024         	goto	u4050
  9206  00484A                     u4051:
  9207  00484A  EF32  F024         	goto	l78
  9208  00484E                     u4050:
  9209  00484E  0E1A               	movlw	26
  9210  004850  6E01               	movwf	??_key_scanner^0,c
  9211  004852  0EF8               	movlw	248
  9212  004854                     u4437:
  9213  004854  2EE8               	decfsz	wreg,f,c
  9214  004856  D7FE               	bra	u4437
  9215  004858  2E01               	decfsz	??_key_scanner^0,f,c
  9216  00485A  D7FC               	bra	u4437
  9217  00485C  D000               	nop2	
  9218  00485E  0E06               	movlw	6
  9219  004860  EFED  F024         	goto	l67
  9220  004864                     l78:
  9221  004864  BE80               	btfsc	128,7,c	;volatile
  9222  004866  EF37  F024         	goto	u4061
  9223  00486A  EF39  F024         	goto	u4060
  9224  00486E                     u4061:
  9225  00486E  EF44  F024         	goto	l75
  9226  004872                     u4060:
  9227  004872  0E1A               	movlw	26
  9228  004874  6E01               	movwf	??_key_scanner^0,c
  9229  004876  0EF8               	movlw	248
  9230  004878                     u4447:
  9231  004878  2EE8               	decfsz	wreg,f,c
  9232  00487A  D7FE               	bra	u4447
  9233  00487C  2E01               	decfsz	??_key_scanner^0,f,c
  9234  00487E  D7FC               	bra	u4447
  9235  004880  D000               	nop2	
  9236  004882  0E0B               	movlw	11
  9237  004884  EFED  F024         	goto	l67
  9238  004888                     l75:
  9239                           
  9240                           ;main.c: 115:     LATAbits.LA0 = 1;
  9241  004888  8089               	bsf	137,0,c	;volatile
  9242                           
  9243                           ;main.c: 116:     LATAbits.LA1 = 1;
  9244  00488A  8289               	bsf	137,1,c	;volatile
  9245                           
  9246                           ;main.c: 117:     LATAbits.LA2 = 0;
  9247  00488C  9489               	bcf	137,2,c	;volatile
  9248                           
  9249                           ;main.c: 118:     LATAbits.LA3 = 1;
  9250  00488E  8689               	bsf	137,3,c	;volatile
  9251  004890                     
  9252                           ;main.c: 119:     _delay((unsigned long)((10)*(8000000/4000.0)));
  9253  004890  0E1A               	movlw	26
  9254  004892  6E01               	movwf	??_key_scanner^0,c
  9255  004894  0EF8               	movlw	248
  9256  004896                     u4457:
  9257  004896  2EE8               	decfsz	wreg,f,c
  9258  004898  D7FE               	bra	u4457
  9259  00489A  2E01               	decfsz	??_key_scanner^0,f,c
  9260  00489C  D7FC               	bra	u4457
  9261  00489E  D000               	nop2	
  9262  0048A0                     
  9263                           ;main.c: 120:     if (PORTAbits.RA4 == 0) {_delay((unsigned long)((10)*(8000000/4000.0))
      +                          ); return 7;}
  9264  0048A0  B880               	btfsc	128,4,c	;volatile
  9265  0048A2  EF55  F024         	goto	u4071
  9266  0048A6  EF57  F024         	goto	u4070
  9267  0048AA                     u4071:
  9268  0048AA  EF62  F024         	goto	l81
  9269  0048AE                     u4070:
  9270  0048AE  0E1A               	movlw	26
  9271  0048B0  6E01               	movwf	??_key_scanner^0,c
  9272  0048B2  0EF8               	movlw	248
  9273  0048B4                     u4467:
  9274  0048B4  2EE8               	decfsz	wreg,f,c
  9275  0048B6  D7FE               	bra	u4467
  9276  0048B8  2E01               	decfsz	??_key_scanner^0,f,c
  9277  0048BA  D7FC               	bra	u4467
  9278  0048BC  D000               	nop2	
  9279  0048BE  0E07               	movlw	7
  9280  0048C0  EFED  F024         	goto	l67
  9281  0048C4                     l81:
  9282  0048C4  BA80               	btfsc	128,5,c	;volatile
  9283  0048C6  EF67  F024         	goto	u4081
  9284  0048CA  EF69  F024         	goto	u4080
  9285  0048CE                     u4081:
  9286  0048CE  EF74  F024         	goto	l83
  9287  0048D2                     u4080:
  9288  0048D2  0E1A               	movlw	26
  9289  0048D4  6E01               	movwf	??_key_scanner^0,c
  9290  0048D6  0EF8               	movlw	248
  9291  0048D8                     u4477:
  9292  0048D8  2EE8               	decfsz	wreg,f,c
  9293  0048DA  D7FE               	bra	u4477
  9294  0048DC  2E01               	decfsz	??_key_scanner^0,f,c
  9295  0048DE  D7FC               	bra	u4477
  9296  0048E0  D000               	nop2	
  9297  0048E2  0E08               	movlw	8
  9298  0048E4  EFED  F024         	goto	l67
  9299  0048E8                     l83:
  9300  0048E8  BC80               	btfsc	128,6,c	;volatile
  9301  0048EA  EF79  F024         	goto	u4091
  9302  0048EE  EF7B  F024         	goto	u4090
  9303  0048F2                     u4091:
  9304  0048F2  EF86  F024         	goto	l85
  9305  0048F6                     u4090:
  9306  0048F6  0E1A               	movlw	26
  9307  0048F8  6E01               	movwf	??_key_scanner^0,c
  9308  0048FA  0EF8               	movlw	248
  9309  0048FC                     u4487:
  9310  0048FC  2EE8               	decfsz	wreg,f,c
  9311  0048FE  D7FE               	bra	u4487
  9312  004900  2E01               	decfsz	??_key_scanner^0,f,c
  9313  004902  D7FC               	bra	u4487
  9314  004904  D000               	nop2	
  9315  004906  0E09               	movlw	9
  9316  004908  EFED  F024         	goto	l67
  9317  00490C                     l85:
  9318  00490C  BE80               	btfsc	128,7,c	;volatile
  9319  00490E  EF8B  F024         	goto	u4101
  9320  004912  EF8D  F024         	goto	u4100
  9321  004916                     u4101:
  9322  004916  EF98  F024         	goto	l82
  9323  00491A                     u4100:
  9324  00491A  0E1A               	movlw	26
  9325  00491C  6E01               	movwf	??_key_scanner^0,c
  9326  00491E  0EF8               	movlw	248
  9327  004920                     u4497:
  9328  004920  2EE8               	decfsz	wreg,f,c
  9329  004922  D7FE               	bra	u4497
  9330  004924  2E01               	decfsz	??_key_scanner^0,f,c
  9331  004926  D7FC               	bra	u4497
  9332  004928  D000               	nop2	
  9333  00492A  0E0C               	movlw	12
  9334  00492C  EFED  F024         	goto	l67
  9335  004930                     l82:
  9336                           
  9337                           ;main.c: 124:     LATAbits.LA0 = 1;
  9338  004930  8089               	bsf	137,0,c	;volatile
  9339                           
  9340                           ;main.c: 125:     LATAbits.LA1 = 1;
  9341  004932  8289               	bsf	137,1,c	;volatile
  9342                           
  9343                           ;main.c: 126:     LATAbits.LA2 = 1;
  9344  004934  8489               	bsf	137,2,c	;volatile
  9345                           
  9346                           ;main.c: 127:     LATAbits.LA3 = 0;
  9347  004936  9689               	bcf	137,3,c	;volatile
  9348  004938                     
  9349                           ;main.c: 128:     _delay((unsigned long)((10)*(8000000/4000.0)));
  9350  004938  0E1A               	movlw	26
  9351  00493A  6E01               	movwf	??_key_scanner^0,c
  9352  00493C  0EF8               	movlw	248
  9353  00493E                     u4507:
  9354  00493E  2EE8               	decfsz	wreg,f,c
  9355  004940  D7FE               	bra	u4507
  9356  004942  2E01               	decfsz	??_key_scanner^0,f,c
  9357  004944  D7FC               	bra	u4507
  9358  004946  D000               	nop2	
  9359  004948                     
  9360                           ;main.c: 129:     if (PORTAbits.RA4 == 0) {_delay((unsigned long)((10)*(8000000/4000.0))
      +                          ); return 14;}
  9361  004948  B880               	btfsc	128,4,c	;volatile
  9362  00494A  EFA9  F024         	goto	u4111
  9363  00494E  EFAB  F024         	goto	u4110
  9364  004952                     u4111:
  9365  004952  EFB6  F024         	goto	l88
  9366  004956                     u4110:
  9367  004956  0E1A               	movlw	26
  9368  004958  6E01               	movwf	??_key_scanner^0,c
  9369  00495A  0EF8               	movlw	248
  9370  00495C                     u4517:
  9371  00495C  2EE8               	decfsz	wreg,f,c
  9372  00495E  D7FE               	bra	u4517
  9373  004960  2E01               	decfsz	??_key_scanner^0,f,c
  9374  004962  D7FC               	bra	u4517
  9375  004964  D000               	nop2	
  9376  004966  0E0E               	movlw	14
  9377  004968  EFED  F024         	goto	l67
  9378  00496C                     l88:
  9379  00496C  BA80               	btfsc	128,5,c	;volatile
  9380  00496E  EFBB  F024         	goto	u4121
  9381  004972  EFBD  F024         	goto	u4120
  9382  004976                     u4121:
  9383  004976  EFC8  F024         	goto	l90
  9384  00497A                     u4120:
  9385  00497A  0E1A               	movlw	26
  9386  00497C  6E01               	movwf	??_key_scanner^0,c
  9387  00497E  0EF8               	movlw	248
  9388  004980                     u4527:
  9389  004980  2EE8               	decfsz	wreg,f,c
  9390  004982  D7FE               	bra	u4527
  9391  004984  2E01               	decfsz	??_key_scanner^0,f,c
  9392  004986  D7FC               	bra	u4527
  9393  004988  D000               	nop2	
  9394  00498A  0E00               	movlw	0
  9395  00498C  EFED  F024         	goto	l67
  9396  004990                     l90:
  9397  004990  BC80               	btfsc	128,6,c	;volatile
  9398  004992  EFCD  F024         	goto	u4131
  9399  004996  EFCF  F024         	goto	u4130
  9400  00499A                     u4131:
  9401  00499A  EFDA  F024         	goto	l92
  9402  00499E                     u4130:
  9403  00499E  0E1A               	movlw	26
  9404  0049A0  6E01               	movwf	??_key_scanner^0,c
  9405  0049A2  0EF8               	movlw	248
  9406  0049A4                     u4537:
  9407  0049A4  2EE8               	decfsz	wreg,f,c
  9408  0049A6  D7FE               	bra	u4537
  9409  0049A8  2E01               	decfsz	??_key_scanner^0,f,c
  9410  0049AA  D7FC               	bra	u4537
  9411  0049AC  D000               	nop2	
  9412  0049AE  0E0F               	movlw	15
  9413  0049B0  EFED  F024         	goto	l67
  9414  0049B4                     l92:
  9415  0049B4  BE80               	btfsc	128,7,c	;volatile
  9416  0049B6  EFDF  F024         	goto	u4141
  9417  0049BA  EFE1  F024         	goto	u4140
  9418  0049BE                     u4141:
  9419  0049BE  EFEC  F024         	goto	l3857
  9420  0049C2                     u4140:
  9421  0049C2  0E1A               	movlw	26
  9422  0049C4  6E01               	movwf	??_key_scanner^0,c
  9423  0049C6  0EF8               	movlw	248
  9424  0049C8                     u4547:
  9425  0049C8  2EE8               	decfsz	wreg,f,c
  9426  0049CA  D7FE               	bra	u4547
  9427  0049CC  2E01               	decfsz	??_key_scanner^0,f,c
  9428  0049CE  D7FC               	bra	u4547
  9429  0049D0  D000               	nop2	
  9430  0049D2  0E0D               	movlw	13
  9431  0049D4  EFED  F024         	goto	l67
  9432  0049D8                     l3857:
  9433  0049D8  0E78               	movlw	120
  9434  0049DA                     l67:
  9435  0049DA  0012               	return		;funcret
  9436  0049DC                     __end_of_key_scanner:
  9437                           	callstack 0
  9438                           
  9439                           	psect	rparam
  9440  0000                     
  9441                           	psect	idloc
  9442                           
  9443                           ;Config register IDLOC0 @ 0x200000
  9444                           ;	unspecified, using default values
  9445  200000                     	org	2097152
  9446  200000  FF                 	db	255
  9447                           
  9448                           ;Config register IDLOC1 @ 0x200001
  9449                           ;	unspecified, using default values
  9450  200001                     	org	2097153
  9451  200001  FF                 	db	255
  9452                           
  9453                           ;Config register IDLOC2 @ 0x200002
  9454                           ;	unspecified, using default values
  9455  200002                     	org	2097154
  9456  200002  FF                 	db	255
  9457                           
  9458                           ;Config register IDLOC3 @ 0x200003
  9459                           ;	unspecified, using default values
  9460  200003                     	org	2097155
  9461  200003  FF                 	db	255
  9462                           
  9463                           ;Config register IDLOC4 @ 0x200004
  9464                           ;	unspecified, using default values
  9465  200004                     	org	2097156
  9466  200004  FF                 	db	255
  9467                           
  9468                           ;Config register IDLOC5 @ 0x200005
  9469                           ;	unspecified, using default values
  9470  200005                     	org	2097157
  9471  200005  FF                 	db	255
  9472                           
  9473                           ;Config register IDLOC6 @ 0x200006
  9474                           ;	unspecified, using default values
  9475  200006                     	org	2097158
  9476  200006  FF                 	db	255
  9477                           
  9478                           ;Config register IDLOC7 @ 0x200007
  9479                           ;	unspecified, using default values
  9480  200007                     	org	2097159
  9481  200007  FF                 	db	255
  9482                           
  9483                           	psect	config
  9484                           
  9485                           ;Config register CONFIG1L @ 0x300000
  9486                           ;	PLL Selection
  9487                           ;	PLLSEL = PLL4X, 4x clock multiplier
  9488                           ;	PLL Enable Configuration bit
  9489                           ;	CFGPLLEN = ON, PLL Enabled
  9490                           ;	CPU System Clock Postscaler
  9491                           ;	CPUDIV = NOCLKDIV, CPU uses system clock (no divide)
  9492                           ;	Low Speed USB mode with 48 MHz system clock
  9493                           ;	LS48MHZ = SYS24X4, System clock at 24 MHz, USB clock divider is set to 4
  9494  300000                     	org	3145728
  9495  300000  02                 	db	2
  9496                           
  9497                           ;Config register CONFIG1H @ 0x300001
  9498                           ;	Oscillator Selection
  9499                           ;	FOSC = INTOSCIO, Internal oscillator
  9500                           ;	Primary Oscillator Shutdown
  9501                           ;	PCLKEN = ON, Primary oscillator enabled
  9502                           ;	Fail-Safe Clock Monitor
  9503                           ;	FCMEN = OFF, Fail-Safe Clock Monitor disabled
  9504                           ;	Internal/External Oscillator Switchover
  9505                           ;	IESO = OFF, Oscillator Switchover mode disabled
  9506  300001                     	org	3145729
  9507  300001  28                 	db	40
  9508                           
  9509                           ;Config register CONFIG2L @ 0x300002
  9510                           ;	Power-up Timer Enable
  9511                           ;	nPWRTEN = OFF, Power up timer disabled
  9512                           ;	Brown-out Reset Enable
  9513                           ;	BOREN = SBORDIS, BOR enabled in hardware (SBOREN is ignored)
  9514                           ;	Brown-out Reset Voltage
  9515                           ;	BORV = 190, BOR set to 1.9V nominal
  9516                           ;	Low-Power Brown-out Reset
  9517                           ;	nLPBOR = OFF, Low-Power Brown-out Reset disabled
  9518  300002                     	org	3145730
  9519  300002  5F                 	db	95
  9520                           
  9521                           ;Config register CONFIG2H @ 0x300003
  9522                           ;	Watchdog Timer Enable bits
  9523                           ;	WDTEN = OFF, WDT disabled in hardware (SWDTEN ignored)
  9524                           ;	Watchdog Timer Postscaler
  9525                           ;	WDTPS = 32768, 1:32768
  9526  300003                     	org	3145731
  9527  300003  3C                 	db	60
  9528                           
  9529                           ; Padding undefined space
  9530  300004                     	org	3145732
  9531  300004  FF                 	db	255
  9532                           
  9533                           ;Config register CONFIG3H @ 0x300005
  9534                           ;	CCP2 MUX bit
  9535                           ;	CCP2MX = RC1, CCP2 input/output is multiplexed with RC1
  9536                           ;	PORTB A/D Enable bit
  9537                           ;	PBADEN = OFF, PORTB<5:0> pins are configured as digital I/O on Reset
  9538                           ;	Timer3 Clock Input MUX bit
  9539                           ;	T3CMX = RC0, T3CKI function is on RC0
  9540                           ;	SDO Output MUX bit
  9541                           ;	SDOMX = RB3, SDO function is on RB3
  9542                           ;	Master Clear Reset Pin Enable
  9543                           ;	MCLRE = ON, MCLR pin enabled; RE3 input disabled
  9544  300005                     	org	3145733
  9545  300005  D1                 	db	209
  9546                           
  9547                           ;Config register CONFIG4L @ 0x300006
  9548                           ;	Stack Full/Underflow Reset
  9549                           ;	STVREN = ON, Stack full/underflow will cause Reset
  9550                           ;	Single-Supply ICSP Enable bit
  9551                           ;	LVP = ON, Single-Supply ICSP enabled if MCLRE is also 1
  9552                           ;	Dedicated In-Circuit Debug/Programming Port Enable
  9553                           ;	ICPRT = OFF, ICPORT disabled
  9554                           ;	Extended Instruction Set Enable bit
  9555                           ;	XINST = OFF, Instruction set extension and Indexed Addressing mode disabled
  9556                           ;	Background Debugger Enable bit
  9557                           ;	DEBUG = 0x1, unprogrammed default
  9558  300006                     	org	3145734
  9559  300006  85                 	db	133
  9560                           
  9561                           ; Padding undefined space
  9562  300007                     	org	3145735
  9563  300007  FF                 	db	255
  9564                           
  9565                           ;Config register CONFIG5L @ 0x300008
  9566                           ;	Block 0 Code Protect
  9567                           ;	CP0 = OFF, Block 0 is not code-protected
  9568                           ;	Block 1 Code Protect
  9569                           ;	CP1 = OFF, Block 1 is not code-protected
  9570                           ;	Block 2 Code Protect
  9571                           ;	CP2 = OFF, Block 2 is not code-protected
  9572                           ;	Block 3 Code Protect
  9573                           ;	CP3 = OFF, Block 3 is not code-protected
  9574  300008                     	org	3145736
  9575  300008  0F                 	db	15
  9576                           
  9577                           ;Config register CONFIG5H @ 0x300009
  9578                           ;	Boot Block Code Protect
  9579                           ;	CPB = OFF, Boot block is not code-protected
  9580                           ;	Data EEPROM Code Protect
  9581                           ;	CPD = OFF, Data EEPROM is not code-protected
  9582  300009                     	org	3145737
  9583  300009  C0                 	db	192
  9584                           
  9585                           ;Config register CONFIG6L @ 0x30000A
  9586                           ;	Block 0 Write Protect
  9587                           ;	WRT0 = OFF, Block 0 (0800-1FFFh) is not write-protected
  9588                           ;	Block 1 Write Protect
  9589                           ;	WRT1 = OFF, Block 1 (2000-3FFFh) is not write-protected
  9590                           ;	Block 2 Write Protect
  9591                           ;	WRT2 = OFF, Block 2 (04000-5FFFh) is not write-protected
  9592                           ;	Block 3 Write Protect
  9593                           ;	WRT3 = OFF, Block 3 (06000-7FFFh) is not write-protected
  9594  30000A                     	org	3145738
  9595  30000A  0F                 	db	15
  9596                           
  9597                           ;Config register CONFIG6H @ 0x30000B
  9598                           ;	Configuration Registers Write Protect
  9599                           ;	WRTC = OFF, Configuration registers (300000-3000FFh) are not write-protected
  9600                           ;	Boot Block Write Protect
  9601                           ;	WRTB = OFF, Boot block (0000-7FFh) is not write-protected
  9602                           ;	Data EEPROM Write Protect
  9603                           ;	WRTD = OFF, Data EEPROM is not write-protected
  9604  30000B                     	org	3145739
  9605  30000B  E0                 	db	224
  9606                           
  9607                           ;Config register CONFIG7L @ 0x30000C
  9608                           ;	Block 0 Table Read Protect
  9609                           ;	EBTR0 = OFF, Block 0 is not protected from table reads executed in other blocks
  9610                           ;	Block 1 Table Read Protect
  9611                           ;	EBTR1 = OFF, Block 1 is not protected from table reads executed in other blocks
  9612                           ;	Block 2 Table Read Protect
  9613                           ;	EBTR2 = OFF, Block 2 is not protected from table reads executed in other blocks
  9614                           ;	Block 3 Table Read Protect
  9615                           ;	EBTR3 = OFF, Block 3 is not protected from table reads executed in other blocks
  9616  30000C                     	org	3145740
  9617  30000C  0F                 	db	15
  9618                           
  9619                           ;Config register CONFIG7H @ 0x30000D
  9620                           ;	Boot Block Table Read Protect
  9621                           ;	EBTRB = OFF, Boot block is not protected from table reads executed in other blocks
  9622  30000D                     	org	3145741
  9623  30000D  40                 	db	64
  9624                           tosu	equ	0xFFF
  9625                           tosh	equ	0xFFE
  9626                           tosl	equ	0xFFD
  9627                           stkptr	equ	0xFFC
  9628                           pclatu	equ	0xFFB
  9629                           pclath	equ	0xFFA
  9630                           pcl	equ	0xFF9
  9631                           tblptru	equ	0xFF8
  9632                           tblptrh	equ	0xFF7
  9633                           tblptrl	equ	0xFF6
  9634                           tablat	equ	0xFF5
  9635                           prodh	equ	0xFF4
  9636                           prodl	equ	0xFF3
  9637                           indf0	equ	0xFEF
  9638                           postinc0	equ	0xFEE
  9639                           postdec0	equ	0xFED
  9640                           preinc0	equ	0xFEC
  9641                           plusw0	equ	0xFEB
  9642                           fsr0h	equ	0xFEA
  9643                           fsr0l	equ	0xFE9
  9644                           wreg	equ	0xFE8
  9645                           indf1	equ	0xFE7
  9646                           postinc1	equ	0xFE6
  9647                           postdec1	equ	0xFE5
  9648                           preinc1	equ	0xFE4
  9649                           plusw1	equ	0xFE3
  9650                           fsr1h	equ	0xFE2
  9651                           fsr1l	equ	0xFE1
  9652                           bsr	equ	0xFE0
  9653                           indf2	equ	0xFDF
  9654                           postinc2	equ	0xFDE
  9655                           postdec2	equ	0xFDD
  9656                           preinc2	equ	0xFDC
  9657                           plusw2	equ	0xFDB
  9658                           fsr2h	equ	0xFDA
  9659                           fsr2l	equ	0xFD9
  9660                           status	equ	0xFD8

Data Sizes:
    Strings     1
    Constant    124
    Data        0
    BSS         10
    Persistent  0
    Stack       0

Auto Spaces:
    Space          Size  Autos    Used
    COMRAM           95     94      94
    BANK0           160     66      76
    BANK1           256    188     188
    BANK2           256      0       0
    BANK3           256      0       0
    BANK4           256      0       0
    BANK5           256      0       0
    BANK6           256      0       0
    BANK7           256      0       0

Pointer List with Targets:

    nanf@s	PTR const unsigned char  size(2) Largest target is 1
		 -> STR_1(CODE[1]), 


Critical Paths under _main in COMRAM

    _main->_send_to_disp
    _send_to_disp->___fltol
    _powf->___fldiv
    _sqrtf->___flge
    ___flge->___flsub
    _scalbnf->___flmul
    ___flmul->___fladd
    ___flsub->___flmul
    ___fldiv->___flsub
    ___fltol->_powf

Critical Paths under _main in BANK0

    _main->_send_to_disp
    _send_to_disp->___fltol
    _powf->_sqrtf
    ___fltol->_powf

Critical Paths under _main in BANK1

    _send_to_disp->_powf
    ___fltol->_powf

Critical Paths under _main in BANK2

    None.

Critical Paths under _main in BANK3

    None.

Critical Paths under _main in BANK4

    None.

Critical Paths under _main in BANK5

    None.

Critical Paths under _main in BANK6

    None.

Critical Paths under _main in BANK7

    None.

Call Graph Tables:

 ---------------------------------------------------------------------------------
 (Depth) Function   	        Calls       Base Space   Used Autos Params    Refs
 ---------------------------------------------------------------------------------
 (0) _main                                                 5     5      0   77531
                                             93 COMRAM     1     1      0
                                             62 BANK0      4     4      0
                        _key_scanner
                          _portsInit
                       _send_to_disp
 ---------------------------------------------------------------------------------
 (1) _send_to_disp                                        18    14      4   76826
                                             89 COMRAM     4     4      0
                                             48 BANK0     14    10      4
                            ___fltol
                           ___xxtofl
                        _char_to_seg
                               _powf
 ---------------------------------------------------------------------------------
 (2) _powf                                               205   197      8   75706
                                             74 COMRAM     9     9      0
                                             36 BANK0      8     0      8
                                              0 BANK1    188   188      0
                            ___fladd
                            ___fldiv
                             ___flge
                            ___flmul
                            ___flneg
                            ___flsub
                           ___xxtofl
                              _fabsf
                            _scalbnf
                              _sqrtf
 ---------------------------------------------------------------------------------
 (3) _sqrtf                                               49    45      4   20885
                                             61 COMRAM     9     5      4
                                              0 BANK0     36    36      0
                            ___fladd
                             ___flge
                            ___flmul
                               _nanf
 ---------------------------------------------------------------------------------
 (4) _nanf                                                 8     4      4      99
                                              0 COMRAM     8     4      4
 ---------------------------------------------------------------------------------
 (4) ___flge                                              12     4      8     790
                                             49 COMRAM    12     4      8
                            ___fladd (ARG)
                            ___flsub (ARG)
 ---------------------------------------------------------------------------------
 (3) _scalbnf                                             18    12      6   12119
                                             41 COMRAM    18    12      6
                            ___flmul
 ---------------------------------------------------------------------------------
 (4) ___flmul                                             25    17      8   11624
                                             16 COMRAM    25    17      8
                            ___fladd (ARG)
 ---------------------------------------------------------------------------------
 (3) _fabsf                                                8     4      4     123
                                              0 COMRAM     8     4      4
 ---------------------------------------------------------------------------------
 (3) ___xxtofl                                            14    10      4     474
                                              0 COMRAM    14    10      4
 ---------------------------------------------------------------------------------
 (3) ___flsub                                              8     0      8   12769
                                             41 COMRAM     8     0      8
                            ___fladd
                            ___flmul (ARG)
 ---------------------------------------------------------------------------------
 (4) ___fladd                                             16     8      8    7430
                                              0 COMRAM    16     8      8
 ---------------------------------------------------------------------------------
 (3) ___flneg                                              4     0      4     197
                                              0 COMRAM     4     0      4
 ---------------------------------------------------------------------------------
 (3) ___fldiv                                             25    17      8    2159
                                             49 COMRAM    25    17      8
                            ___fladd (ARG)
                            ___flmul (ARG)
                            ___flsub (ARG)
 ---------------------------------------------------------------------------------
 (2) _char_to_seg                                          4     4      0      61
                                              0 COMRAM     4     4      0
 ---------------------------------------------------------------------------------
 (2) ___fltol                                             10     6      4     305
                                             83 COMRAM     6     6      0
                                             44 BANK0      4     0      4
                           ___xxtofl (ARG)
                               _powf (ARG)
 ---------------------------------------------------------------------------------
 (1) _portsInit                                            0     0      0       0
 ---------------------------------------------------------------------------------
 (1) _key_scanner                                          1     1      0       0
                                              0 COMRAM     1     1      0
 ---------------------------------------------------------------------------------
 Estimated maximum stack depth 4
 ---------------------------------------------------------------------------------

 Call Graph Graphs:

 _main (ROOT)
   _key_scanner
   _portsInit
   _send_to_disp
     ___fltol
       ___xxtofl (ARG)
       _powf (ARG)
         ___fladd
         ___fldiv
           ___fladd (ARG)
           ___flmul (ARG)
             ___fladd (ARG)
           ___flsub (ARG)
             ___fladd
             ___flmul (ARG)
         ___flge
           ___fladd (ARG)
           ___flsub (ARG)
         ___flmul
         ___flneg
         ___flsub
         ___xxtofl
         _fabsf
         _scalbnf
           ___flmul
         _sqrtf
           ___fladd
           ___flge
           ___flmul
           _nanf
     ___xxtofl
     _char_to_seg
     _powf

 Address spaces:
Name               Size   Autos  Total    Cost      Usage
BIGRAM             7FF      0       0      30        0.0%
EEDATA             100      0       0       0        0.0%
BITBANK7           100      0       0      18        0.0%
BANK7              100      0       0      19        0.0%
BITBANK6           100      0       0      16        0.0%
BANK6              100      0       0      17        0.0%
BITBANK5           100      0       0      14        0.0%
BANK5              100      0       0      15        0.0%
BITBANK4           100      0       0      12        0.0%
BANK4              100      0       0      13        0.0%
BITBANK3           100      0       0      10        0.0%
BANK3              100      0       0      11        0.0%
BITBANK2           100      0       0       8        0.0%
BANK2              100      0       0       9        0.0%
BITBANK1           100      0       0       6        0.0%
BANK1              100     BC      BC       7       73.4%
BITBANK0            A0      0       0       4        0.0%
BANK0               A0     42      4C       5       47.5%
BITCOMRAM           5F      0       0       0        0.0%
COMRAM              5F     5E      5E       1       98.9%
BITBIGSFRhhhl       3D      0       0      21        0.0%
BITBIGSFRhhhh       2C      0       0      20        0.0%
BITBIGSFRhlhll      21      0       0      26        0.0%
BITBIGSFRhlhlh       8      0       0      25        0.0%
BITBIGSFRl           8      0       0      28        0.0%
BITBIGSFRhlhhh       5      0       0      23        0.0%
BITBIGSFRhlhhl       1      0       0      24        0.0%
BITBIGSFRhhl         1      0       0      22        0.0%
BITBIGSFRhll         1      0       0      27        0.0%
BIGSFR               0      0       0     200        0.0%
BITSFR_1             0      0       0     200        0.0%
SFR_1                0      0       0     200        0.0%
BITSFR               0      0       0     200        0.0%
SFR                  0      0       0     200        0.0%
STACK                0      0       0       2        0.0%
NULL                 0      0       0       0        0.0%
ABS                  0      0     166      29        0.0%
DATA                 0      0     166       3        0.0%
CODE                 0      0       0       0        0.0%


Microchip Technology PIC18 Macro Assembler V2.36 build 20220127204148 
Symbol Table                                                                                   Mon May 02 17:30:10 2022

              ___fldiv@aexp 004A                ___fldiv@bexp 0049                ___fldiv@sign 0042  
                        _L1 0859                          _L2 0855                          _L3 0851  
                        _L4 084D                          _L5 0849                          _L6 0845  
                        _P1 0841                          _P2 083D                          l71 47BC  
                        l63 52C2                          l39 3AFC                          _P3 0839  
                        _P4 0835                          l81 48C4                          _P5 0831  
                        l90 4990                          l82 4930                          l74 481C  
                        l66 4774                          l83 48E8                          l75 4888  
                        l67 49DA                          l92 49B4                          l76 4840  
                        l68 47E0                          l85 490C                          l69 4798  
                        l78 4864                          l88 496C                          _bp 0869  
                        _cp 081D                         l100 51CE                         l122 4EE6  
                       l422 4FEE                         l390 50AC                         l720 4654  
                       l712 455A                         l721 4642                         l707 4736  
                       l395 50F2                         l709 4596                         l653 3826  
                       l718 45DC                         l670 3940                         l662 3AF6  
                       l654 3814                         l399 524C                         l655 37DA  
                       l743 439C                         l680 39FE                         l746 422E  
                       l739 4038                         l780 4C66                         l756 435E  
                       l748 42A6                         l749 4294                         l861 0880  
                       l679 3A10                         l695 5214                         l783 4DC2  
                       l871 0B40                         l863 08A0                         l881 0BD4  
                       l794 4D5A                         l866 3176                         l787 4CFE  
                       l891 0C96                         l967 29A8                         l968 2A10  
                       l986 5280                         l978 3122                         l899 0DBC  
                       l996 4C0E                         _lg2 082D                         _ovt 0821  
                       wreg 000FE8                ___flmul@aexp 0022                ___flmul@bexp 0023  
              ___flmul@sign 001D                ___flmul@temp 0028                ___flmul@prod 0024  
              ___fltol@exp1 0059                        l1012 3376                        l1021 35A0  
                      l1016 33D4                        l1008 3636                        l1019 3498  
                      l1029 52A2                        l3001 4712                        l3003 4716  
                      l3005 4724                        l3007 472A                        l3023 5216  
                      l3031 4C12                        l3111 3340                        l3103 32C0  
                      l3009 472C                        l3025 522C                        l3017 51D0  
                      l3033 4C22                        l3121 340E                        l3113 334E  
                      l3105 3316                        l3027 523C                        l3019 51E0  
                      l3051 4CE8                        l3043 4CA0                        l3035 4C30  
                      l3131 34C8                        l3123 3422                        l3115 33B6  
                      l3107 332A                        l3211 093A                        l3203 08C0  
                      l3061 4D68                        l3053 4CF4                        l3045 4CA8  
                      l3037 4C76                        l3141 3564                        l3133 34DE  
                      l3125 3460                        l3117 33C4                        l3109 3334  
                      l3301 0EEE                        l3205 0908                        l4007 4E5E  
                      l3071 4DB0                        l3063 4D6A                        l3055 4D30  
                      l3047 4CB4                        l3039 4C8C                        l3143 3576  
                      l3135 34EE                        l3127 34A8                        l3119 33EE  
                      l3311 0F4C                        l3303 0F04                        l3231 0A1A  
                      l3223 09CC                        l3215 0950                        l2601 37A6  
                      l2521 3644                        l3073 4DB2                        l3065 4D6E  
                      l3057 4D3C                        l3049 4CE6                        l3153 524E  
                      l3161 49DC                        l3145 3606                        l3137 3520  
                      l3129 34B2                        l3081 3188                        l3401 16E6  
                      l3321 0FFA                        l3313 0F5A                        l3305 0F28  
                      l3233 0A36                        l3225 09DC                        l3217 0972  
                      l3209 091E                        l2611 37F8                        l2603 37C2  
                      l2531 3684                        l2523 3652                        l3067 4D92  
                      l3059 4D4A                        l3155 526E                        l3171 4A60  
                      l3163 49EC                        l3147 3616                        l3139 3532  
                      l3091 3248                        l3083 3198                        l3411 177E  
                      l3403 16F2                        l3331 1074                        l3323 1010  
                      l3315 0F70                        l3235 0B10                        l3227 09EA  
                      l3219 0994                        l2701 3A96                        l2621 3844  
                      l2613 3806                        l2605 37D2                        l2541 36B6  
                      l2533 3686                        l2525 3654                        l3069 4DA2  
                      l3157 5270                        l3181 4AE0                        l3173 4A94  
                      l3165 4A08                        l3149 3626                        l3093 3276  
                      l3085 31CE                        l3077 3178                        l3501 20D8  
                      l3421 1862                        l3413 17FE                        l3405 1702  
                      l3341 118E                        l3333 10E0                        l3317 0F7A  
                      l3325 1020                        l3309 0F3C                        l3253 0BE8  
                      l3245 0B8E                        l3237 0B5C                        l3261 0C34  
                      l3229 0A06                        l2711 3AD0                        l2703 3AB6  
                      l2631 3884                        l2615 3808                        l2607 37E8  
                      l2551 36DE                        l2543 36B8                        l2527 3664  
                      l2535 368E                        l2519 3638                        l3191 4B74  
                      l3183 4B14                        l3175 4A9C                        l3167 4A3C  
                      l3095 328A                        l3079 3178                        l3511 2266  
                      l3503 2154                        l3431 1938                        l3423 187C  
                      l3415 1832                        l3407 1712                        l3351 12F2  
                      l3343 11FA                        l3327 1042                        l3263 0C50  
                      l3255 0BF6                        l3247 0BB0                        l3239 0B78  
                      l2713 3AD6                        l2705 3ABA                        l2641 38AE  
                      l2633 3890                        l2625 3858                        l2617 3812  
                      l2609 37F4                        l2561 3718                        l2553 36EE  
                      l2545 36BE                        l2537 369E                        l2529 3674  
                      l2801 41F6                        l2721 3F74                        l3193 4B90  
                      l3185 4B1C                        l3177 4AB8                        l3169 4A44  
                      l3097 3298                        l3089 322A                        l3601 2B18  
                      l3521 22E4                        l3513 229A                        l3505 21B0  
                      l3441 1AAC                        l3433 1994                        l3425 188C  
                      l3417 1842                        l3409 1722                        l3361 1496  
                      l3353 1326                        l3329 1066                        l3337 114C  
                      l3281 0D48                        l3273 0CFA                        l3265 0C5E  
                      l3257 0C1E                        l3249 0BBE                        l2715 3AE4  
                      l2707 3AC8                        l2651 3920                        l2635 3894  
                      l2627 3868                        l2619 3834                        l2643 38B4  
                      l2571 3744                        l2563 372A                        l2555 36FE  
                      l2547 36CC                        l2539 36A4                        l2811 424C  
                      l2803 4214                        l2731 3FB0                        l2723 3F80  
                      l3187 4B38                        l3195 4B98                        l3179 4AC4  
                      l3099 32A0                        l3611 2C02                        l3603 2B32  
                      l3531 23EC                        l3523 2318                        l3515 22AA  
                      l3507 21D6                        l3451 1C40                        l3443 1AE0  
                      l3435 19C8                        l3427 18D6                        l3419 1852  
                      l3371 1514                        l3363 14A6                        l3355 137E  
                      l3339 1170                        l3347 1266                        l3291 0DDA  
                      l3283 0D6C                        l3275 0D12                        l3267 0CAA  
                      l2901 4410                        l2717 3AE6                        l2709 3ACE  
                      l2661 397A                        l2645 38DA                        l2653 3930  
                      l2637 38A2                        l2629 3876                        l2581 3758  
                      l2573 3748                        l2565 3738                        l2557 3700  
                      l2549 36CE                        l2821 42B6                        l2813 4250  
                      l2805 421E                        l2741 3FE2                        l2733 3FC0  
                      l2725 3F8E                        l3197 4BCA                        l3189 4B6C  
                      l3621 2D2A                        l3613 2C5A                        l3605 2B42  
                      l3541 24D6                        l3533 23FC                        l3525 2374  
                      l3517 22BA                        l3509 220A                        l3461 1D8C  
                      l3453 1C98                        l3445 1B38                        l3437 1A20  
                      l3429 1928                        l3381 15BE                        l3365 14B6  
                      l3357 13B2                        l3349 129A                        l3373 154C  
                      l3293 0E0E                        l3285 0D8A                        l3277 0D20  
                      l3269 0CC2                        l3711 4F3E                        l3703 4EE8  
                      l2911 4450                        l2903 441E                        l2671 39AA  
                      l2663 3984                        l2655 3956                        l2647 390E  
                      l2639 38A4                        l2591 376C                        l2583 375C  
                      l2575 374C                        l2567 373C                        l2559 3708  
                      l2831 4318                        l2823 42C2                        l2815 425E  
                      l2807 422C                        l2751 4022                        l2743 3FF0  
                      l2735 3FC6                        l2727 3F90                        l3199 4BFE  
                      l3631 2EE2                        l3623 2D82                        l3615 2C8E  
                      l3607 2B76                        l3551 2582                        l3543 250A  
                      l3535 2416                        l3527 23A8                        l3519 22D4  
                      l3471 1E48                        l3463 1DC0                        l3455 1CCC  
                      l3447 1B90                        l3439 1A78                        l3391 1666  
                      l3383 15CE                        l3375 155C                        l3367 14D0  
                      l3359 13E6                        l3295 0E1E                        l3287 0DA0  
                      l3713 4F40                        l3705 4F00                        l2921 4490  
                      l2913 4452                        l2905 4420                        l2681 39D2  
                      l2673 39AE                        l2665 3992                        l2657 3966  
                      l2649 3910                        l2593 3770                        l2585 3760  
                      l2577 3750                        l2569 3740                        l2841 4380  
                      l2833 432C                        l2825 42D0                        l2817 428C  
                      l2809 423E                        l2761 406C                        l2753 4028  
                      l2745 3FF2                        l2737 3FD6                        l2729 3FA0  
                      l3641 3052                        l3633 2F5E                        l3625 2DDA  
                      l3617 2CC2                        l3609 2BAA                        l3561 2680  
                      l3545 253E                        l3537 2426                        l3481 1F0E  
                      l3473 1E62                        l3465 1DF4                        l3457 1D00  
                      l3449 1BE8                        l3393 168A                        l3377 1578  
                      l3385 15DE                        l3529 23DC                        l3369 14E0  
                      l3297 0E64                        l3289 0DCC                        l3803 4890  
                      l3715 4F50                        l2931 44C0                        l2923 4498  
                      l2907 4430                        l2915 445A                        l2691 3A2C  
                      l2683 39E0                        l2675 39BE                        l2667 3994  
                      l2595 3774                        l2587 3764                        l2579 3754  
                      l2843 4382                        l2835 4346                        l2827 42FA  
                      l2771 40BC                        l2763 4078                        l2755 4048  
                      l2747 4002                        l2739 3FDC                        l2851 4FF0  
                      l3651 3142                        l3643 3062                        l3635 2FB6  
                      l3627 2E32                        l3619 2CF6                        l3547 254E  
                      l3539 247E                        l3491 2012                        l3483 1F42  
                      l3475 1E72                        l3467 1E28                        l3459 1D58  
                      l3395 169E                        l3387 1636                        l3379 15AC  
                      l3299 0E6E                        l3813 48D2                        l3805 48A0  
                      l3741 4FCE                        l3725 4F7A                        l3717 4F54  
                      l3709 4F14                        l3661 4DDA                        l2941 44FE  
                      l2933 44C0                        l2925 449C                        l2917 446A  
                      l2909 4440                        l2693 3A3A                        l2685 39F6  
                      l2669 39A2                        l2677 39C0                        l2589 3768  
                      l2597 3778                        l2837 4362                        l2845 4388  
                      l2829 42FE                        l2781 40FE                        l2773 40C8  
                      l2765 4082                        l2757 4058                        l2749 4012  
                      l2861 507A                        l2853 501E                        l3645 3072  
                      l3637 2FEA                        l3629 2E8A                        l3573 2792  
                      l3581 2870                        l3565 26EC                        l3557 25EE  
                      l3549 255E                        l3493 202C                        l3485 1FBE  
                      l3477 1EA6                        l3469 1E38                        l3397 16C2  
                      l3389 164E                        l3901 3B98                        l3831 4948  
                      l3807 48AE                        l3751 4740                        l3743 4FDE  
                      l3735 4FA2                        l3727 4F84                        l3719 4F62  
                      l3671 4E02                        l3663 4DE2                        l3655 4DC6  
                      l2951 454A                        l2943 450E                        l2919 4480  
                      l2695 3A74                        l2679 39CE                        l2599 377C  
                      l2847 438C                        l2839 4372                        l2791 4160  
                      l2783 410A                        l2775 40D4                        l2767 4098  
                      l2863 508C                        l2855 502E                        l3647 30A6  
                      l3639 301E                        l3591 2A80                        l3583 28D2  
                      l3575 27AE                        l3567 2726                        l3559 2606  
                      l3495 203C                        l3487 1FF2                        l3479 1EDA  
                      l3399 16D6                        l3911 3C0E                        l3903 3BB8  
                      l3833 4956                        l3825 491A                        l3761 4782  
                      l3753 4750                        l3737 4FAE                        l3729 4F8E  
                      l3681 4E2A                        l3673 4E0A                        l3665 4DEA  
                      l3657 4DCA                        l2961 4594                        l2953 4558  
                      l2945 451E                        l2937 44D4                        l2929 44B0  
                      l2881 43AA                        l2689 3A20                        l2697 3A76  
                      l2793 416C                        l2785 411A                        l2777 40E2  
                      l2769 40A4                        l2865 509A                        l2857 505C  
                      l2873 5282                        l3649 30F2                        l3593 2A90  
                      l3585 28E2                        l3577 2804                        l3497 2070  
                      l3489 2002                        l3921 3C84                        l3913 3C20  
                      l3905 3BCA                        l3851 49C2                        l3819 48F6  
                      l3755 475E                        l3747 52A4                        l3739 4FBE  
                      l3683 4E32                        l3675 4E12                        l3667 4DF2  
                      l3659 4DD2                        l2971 45DA                        l2963 45A6  
                      l2955 4564                        l2947 4526                        l2939 44EE  
                      l2891 43EA                        l2883 43B8                        l2699 3A86  
                      l2795 4188                        l2787 4134                        l2779 40EE  
                      l2867 50EA                        l2859 506C                        l2875 5292  
                      l3587 2904                        l3595 2AC4                        l3499 20A4  
                      l3931 3CEC                        l3923 3C96                        l3915 3C40  
                      l3907 3BDC                        l3845 499E                        l3829 4938  
                      l3781 4806                        l3773 47CA                        l3749 4738  
                      l3685 4E3A                        l3677 4E1A                        l3669 4DFA  
                      l3693 4E4A                        l2981 463A                        l2965 45BC  
                      l2973 45EC                        l2957 4582                        l2949 4536  
                      l2893 43EC                        l2885 43BA                        l2797 41B2  
                      l2789 4144                        l2869 50F0                        l3597 2AF8  
                      l3589 2A00                        l3861 50F4                        l3941 3D62  
                      l3933 3D0C                        l3925 3CA8                        l3917 3C52  
                      l3909 3BFC                        l3839 497A                        l3767 47A6  
                      l3687 4E42                        l3679 4E22                        l3695 4EE4  
                      l2991 46A8                        l2975 45FA                        l2967 45C2  
                      l2959 4584                        l2887 43CA                        l2895 43F4  
                      l2879 439E                        l2799 41E8                        l3599 2B08  
                      l3871 515C                        l3951 3DD8                        l3943 3D74  
                      l3935 3D1E                        l3927 3CC8                        l3919 3C64  
                      l3857 49D8                        l3793 484E                        l3777 47E8  
                      l2985 4664                        l2993 46AC                        l2977 45FE  
                      l2969 45CC                        l2897 4404                        l2889 43DA  
                      l3881 51BA                        l3873 516E                        l3961 3E40  
                      l3953 3DEA                        l3945 3D94                        l3937 3D30  
                      l3929 3CDA                        l3787 482A                        l3779 47F8  
                      l2995 46C6                        l2987 4670                        l2979 460C  
                      l2899 440A                        l3883 51BE                        l3875 5172  
                      l3867 50FA                        l3971 3EB6                        l3963 3E60  
                      l3955 3DFC                        l3947 3DA6                        l3939 3D50  
                      l3891 3B32                        l2997 46DC                        l2989 467E  
                      l3877 51A2                        l3869 511A                        l3981 3F2C  
                      l3973 3EC8                        l3965 3E72                        l3957 3E1C  
                      l3949 3DB8                        l3893 3B44                        l3885 3AF8  
                      l3799 4872                        l2999 46F6                        l3879 51AA  
                      l3983 3F3E                        l3975 3EE8                        l3967 3E84  
                      l3959 3E2E                        l3895 3B54                        l3887 3B02  
                      l3985 3F58                        l3977 3EFA                        l3969 3EA4  
                      l3897 3B74                        l3889 3B12                        l3979 3F0C  
                      l3899 3B86                        STR_1 087D                        u3000 46C6  
                      u2200 36B6                        u3001 46C2                        u2201 36B2  
                      u3010 46F6                        u2210 36CC                        u3011 46F2  
                      u2211 36C8                        u3020 4724                        u2300 3806  
                      u2220 36DE                        u3100 4D5A                        u3021 4720  
                      u2301 3802                        u2221 36DA                        u3101 4D56  
                      u3030 522C                        u2310 3826                        u2230 36EE  
                      u3110 4D68                        _LATB 000F8A                        u3031 5228  
                      u2311 3822                        u2231 36EA                        u3111 4D64  
                      u4000 4782                        u2400 3966                        u2320 3834  
                      u2240 372A                        u3120 4DA2                        u3040 4C22  
                      u3200 334E                        _LATD 000F8C                        u4001 477E  
                      u2401 3962                        u2321 3830                        u2241 3726  
                      u3121 4D9E                        u3041 4C1E                        u3201 334A  
                      u4010 47A6                        u2410 3992                        u2330 3844  
                      u2250 3738                        u2170 3652                        u3130 4DB0  
                      u3050 4C30                        u3210 33C4                        u4011 47A2  
                      u2411 398E                        u2331 3840                        u2251 3734  
                      u2171 364E                        u3131 4DAC                        u3051 4C2C  
                      u3211 33C0                        u4100 491A                        u4020 47CA  
                      u2500 3A74                        u2420 39A2                        u2340 3876  
                      u2260 37A6                        u2180 3664                        u3060 4C8C  
                      u3300 4AB8                        u3220 3460                        u3140 31CE  
                      u4101 4916                        u4021 47C6                        u2501 3A70  
                      u2421 399E                        u2341 3872                        u2261 37A2  
                      u2181 3660                        u3061 4C88                        u3301 4AB4  
                      u3221 345C                        u3141 31CA                        u4110 4956  
                      u4030 4806                        u2510 3A86                        u2430 39BE  
                      u2350 3884                        u2270 37BE                        u2190 3674  
                      u3070 4CE2                        u3310 4AE0                        u3230 34C8  
                      u3150 3248                        u4111 4952                        u4031 4802  
                      u2511 3A82                        u2431 39BA                        u2351 3880  
                      u2271 37B8                        u2191 3670                        u3071 4CDE  
                      u3311 4ADC                        u3231 34C4                        u3151 3244  
                      u4120 497A                        u4040 482A                        u2520 3A96  
                      u2440 39CE                        u2360 38A2                        u2280 37C0  
                      u3080 4D2C                        u2600 4002                        u3320 4B38  
                      u3240 34DE                        u3160 3276                        u3400 0A06  
                      u4200 3BDC                        u4121 4976                        u4041 4826  
                      u2521 3A92                        u2441 39CA                        u2361 389E  
                      u3081 4D28                        u2601 3FFE                        u3321 4B34  
                      u3241 34DA                        u3161 3272                        u3401 0A02  
                      u4201 3BD8                        u4130 499E                        u4050 484E  
                      u2530 3AB6                        u2450 39E0                        u2370 38DA  
                      u2290 37E8                        u3090 4D4A                        u2610 4012  
                      u3330 4B90                        u3250 3520                        u3170 3298  
                      u3410 0A36                        u4210 3C20                        u4131 499A  
                      u4051 484A                        u2531 3AB2                        u2451 39DC  
                      u2371 38D6                        u2291 37E4                        u3091 4D46  
                      u2611 400E                        u3331 4B8C                        u3251 351C  
                      u3171 3294                        u3411 0A32                        u4211 3C1C  
                      u4140 49C2                        u4060 4872                        u2540 3AC8  
                      u2460 39F6                        u2380 3920                        u2700 42B6  
                      u2620 4048                        u3260 3564                        u3500 0BF6  
                      u4300 3E84                        u4220 3C64                        u4141 49BE  
                      u4061 486E                        u2541 3AC4                        u2461 39F2  
                      u2381 391C                        u2701 42B2                        u2621 4044  
                      u3261 3560                        u3501 0BF2                        u4301 3E80  
                      u4221 3C60                        u4070 48AE                        u2550 3AE4  
                      u2470 3A0C                        u2390 3956                        u2710 42D0  
                      u2630 4058                        u3190 3316                        u3510 0C50  
                      u3350 0908                        u4150 5198                        u4310 3EC8  
                      u4230 3CA8                        u4071 48AA                        u2551 3AE0  
                      u2471 3A08                        u2391 3952                        u2711 42CC  
                      u2631 4054                        u3191 3312                        u3511 0C4C  
                      u3351 0904                        u4311 3EC4                        u4231 3CA4  
                      u4080 48D2                        u2800 43B8                        u2480 3A20  
                      u2720 4318                        u2640 41D2                        u2560 3F8E  
                      u3280 4A08                        u3600 0E1E                        u3520 0C5E  
                      u3440 0AE6                        u3360 093A                        u4160 51CE  
                      u4320 3F0C                        u4240 3CEC                        u4081 48CE  
                      u2801 43B4                        u2481 3A1C                        u2721 4314  
                      u2561 3F8A                        u3345 4BAA                        u3281 4A04  
                      u3185 32D4                        u3601 0E1A                        u3521 0C5A  
                      u3425 0A4A                        u3361 0936                        u4161 51CA  
                      u4321 3F08                        u4241 3CE8                        u4090 48F6  
                      u2810 43CA                        u2490 3A3A                        u2730 4346  
                      u2650 422C                        u2570 3FA0                        u3290 4A60  
                      u3186 32DE                        u3610 0E64                        u3530 0CC2  
                      u3450 0B10                        u3426 0A54                        u3370 0972  
                      u4250 3D30                        u4170 3B12                        u4091 48F2  
                      u2811 43C6                        u2491 3A36                        u2731 4342  
                      u2651 4228                        u2571 3F9C                        u3291 4A5C  
                      u3275 35E6                        u3187 32EE                        u3611 0E60  
                      u3531 0CBE                        u3451 0B0C                        u3435 0A94  
                      u3427 0A64                        u3371 096E                        u4155 518E  
                      u4251 3D2C                        u4171 3B0E                        u2900 4582  
                      u2820 43DA                        u2740 4380                        u2660 424C  
                      u2580 3FB0                        u3700 118E                        u3620 0F04  
                      u3540 0D12                        u3460 0B5C                        u3436 0A9E  
                      u3380 0994                        u4260 3D74                        u4180 3B54  
                      u2901 457E                        u2821 43D6                        u2741 437C  
                      u2661 4248                        u2645 41C8                        u2581 3FAC  
                      u3701 118A                        u3621 0F00                        u3541 0D0E  
                      u3461 0B58                        u3445 0ADC                        u3437 0AAE  
                      u3381 0990                        u4261 3D70                        u4181 3B50  
                      u2910 45A6                        u2830 441E                        u2670 425E  
                      u2590 3FF0                        u2750 501E                        u3710 1578  
                      u3630 0F5A                        u3550 0D20                        u3470 0B78  
                      u3390 09EA                        u4270 3DB8                        u4190 3B98  
                      u4407 47EE                        u2911 45A2                        u2831 441A  
                      u2671 425A                        u2591 3FEC                        u2751 501A  
                      u3711 1574                        u3631 0F56                        u3551 0D1C  
                      u3471 0B74                        u3391 09E6                        u4271 3DB4  
                      u4191 3B94                        u2920 45BC                        u2840 4430  
                      u2680 428C                        u2760 505C                        u3800 27AE  
                      u3640 0F70                        u3560 0D8A                        u3480 0BB0  
                      u4280 3DFC                        u4417 480C                        u2921 45B8  
                      u2841 442C                        u2681 4288                        u2761 5058  
                      u3801 27AA                        u3641 0F6C                        u3561 0D86  
                      u3481 0BAC                        u4337 3F4A                        u4281 3DF8  
                      u2930 45DA                        u2850 4440                        u2690 42A2  
                      u2770 507A                        u3810 2804                        u3730 168A  
                      u3650 1010                        u3570 0DA0                        u3490 0BBE  
                      u4290 3E40                        u4507 493E                        u4427 4830  
                      u2931 45D6                        u2851 443C                        u2691 429E  
                      u2771 5076                        u3811 2800                        u3731 1686  
                      u3651 100C                        u3571 0D9C                        u3491 0BBA  
                      u4347 51B0                        u4291 3E3C                        u2940 45FA  
                      u2860 4480                        u2780 509A                        u3740 16C2  
                      u3660 1042                        u3580 0DBC                        u4517 495C  
                      u4437 4854                        u4357 4746                        u2941 45F6  
                      u2861 447C                        u2781 5096                        u3741 16BE  
                      u3725 15F2                        u3661 103E                        u3581 0DB8  
                      u2950 460C                        u2870 44C0                        u2790 50EA  
                      u3910 30F2                        u3830 2904                        u3726 15FC  
                      u3670 1066                        u3590 0DDA                        u4527 4980  
                      u4447 4878                        u4367 4764                        u2951 4608  
                      u2871 44BC                        u2791 50E6                        u3911 30EE  
                      u3831 2900                        u3727 160C                        u3671 1062  
                      u3591 0DD6                        u3920 4F00                        u2960 463A  
                      u2880 4536                        u3760 2582                        u3680 1074  
                      u4537 49A4                        u4457 4896                        u4377 4788  
                      u3921 4EFC                        u2961 4636                        u2881 4532  
                      u3905 30BA                        u3825 289E                        u3761 257E  
                      u3681 1070                        u3930 4F34                        u2970 4650  
                      u2890 4558                        u3906 30C4                        u3826 28A8  
                      u3770 2606                        u3690 1170                        u4547 49C8  
                      u4467 48B4                        u4387 47AC                        u2971 464C  
                      u2891 4554                        u3907 30D4                        u3827 28B8  
                      u3771 2602                        u3755 18E8                        u3691 116C  
                      u3940 4F62                        u2980 4664                        u3780 2680  
                      u4477 48D8                        u4397 47D0                        u3941 4F5E  
                      u2981 4660                        u3845 291C                        u3781 267C  
                      u3950 4F76                        u2990 467E                        u3846 2926  
                      u3790 2726                        u4487 48FC                        u3951 4F72  
                      u3935 4F2A                        u2991 467A                        u3855 2974  
                      u3847 2936                        u3791 2722                        u3960 4F9E  
                      u3880 2A80                        u3856 297E                        u4497 4920  
                      u3961 4F9A                        u3881 2A7C                        u3865 29BC  
                      u3857 298E                        u3970 4FBE                        u3866 29C6  
                      u3971 4FBA                        u3875 2A46                        u3867 29D6  
                      u3980 4FCE                        u3876 2A50                        u3981 4FCA  
                      u3877 2A60                        u3990 475E                        u3991 475A  
                      u3895 3084                        _cp_h 0879                        _cp_l 0875  
                      _dp_h 0809                        _dp_l 0801                        _main 3AF8  
                      _nanf 5282                        _huge 0861                        _powf 0880  
                      _tiny 085D                        prodh 000FF4                        prodl 000FF3  
                      start 0000             ___fldiv@new_exp 0043                ___param_bank 000000  
             ___fltol@sign1 0058             __end_of___fladd 3AF8                       ?_main 0001  
                     ?_nanf 0001             __end_of___fldiv 4738             __end_of___flneg 524E  
           __end_of___flmul 439E                       ?_powf 0084             __end_of___flsub 5216  
           __end_of___fltol 4FF0                ?_key_scanner 0001                       _TRISA 000F92  
                     _TRISB 000F93                       _TRISD 000F95           send_to_disp@sweep 009A  
                     _lg2_h 0829                       _lg2_l 0825                       _fabsf 524E  
                     _errno 00AA                       _ivln2 0819             __end_of_ivln2_h 0875  
           __end_of_ivln2_l 0819                       _two24 0865             __end_of_scalbnf 4C10  
                     _sqrtf 3178                       nanf@s 0001                       nanf@u 0005  
                     tablat 000FF5                       powf@i 012C                       powf@j 01AC  
                     powf@k 01A0                       powf@n 017C                       powf@r 014C  
                     powf@s 015C                       powf@t 01B0                       powf@u 0174  
                     powf@v 0178                       powf@w 0144                       powf@x 0084  
                     powf@y 0088                       powf@z 01B4                       status 000FD8  
           __initialization 52C4                __end_of_cp_h 087D                __end_of_cp_l 0879  
              __end_of_dp_h 0811                __end_of_dp_l 0809                __end_of_main 3F74  
              __end_of_nanf 52A4                __end_of_huge 0865                __end_of_powf 3178  
              __end_of_tiny 0861                      ??_main 009E                      ??_nanf 0005  
                    ??_powf 004B               __activetblptr 000002                      ?_fabsf 0001  
                    _ANSELA 000F5B                      _ANSELB 000F5C                      _ANSELD 000F5E  
                    ?_sqrtf 003E            _send_to_disp$958 0094                      _OSCCON 000FD3  
          __end_of___xxtofl 4DC4                      ___flge 4FF0                   ??___fladd 0009  
                 ??___fldiv 003A                   ??___flneg 0005                   ??___flmul 0019  
                 ??___flsub 0032                   ??___fltol 0054                      fabsf@u 0005  
                    fabsf@x 0001                      clear_0 52CA                      isa$std 000001  
                 ??_scalbnf 0030                __mediumconst 0000                      powf@s2 018C  
                    powf@t1 0180                      powf@t2 011C                      tblptrh 000FF7  
                    tblptrl 000FF6                      powf@y1 0128                      tblptru 000FF8  
                    powf@ax 0170                      powf@is 0190                      powf@hx 0160  
                    powf@hy 0184                      powf@ix 01A8                      powf@iy 0198  
                    powf@sn 0188                      sqrtf@i 0064                      sqrtf@m 0078  
                    sqrtf@q 006C                      sqrtf@r 007C                      sqrtf@s 0060  
                    sqrtf@t 0070                      sqrtf@x 003E                      sqrtf@z 0074  
                ___flge@ff1 0032                  ___flge@ff2 0036                ___xxtofl@arg 000B  
              ___xxtofl@exp 000A                ___xxtofl@val 0001                  __accesstop 0060  
   __end_of__initialization 52D0                  ___flneg@f1 0001               ___rparam_used 000001  
                ___fltol@f1 008C              __pcstackCOMRAM 0001               __end_of_lg2_h 082D  
             __end_of_lg2_l 0829               __end_of_fabsf 5282               __end_of_ivln2 081D  
             __end_of_two24 0869               __end_of_sqrtf 3638                  __end_of_L1 085D  
                __end_of_L2 0859                  __end_of_L3 0855                  __end_of_L4 0851  
                __end_of_L5 084D                  __end_of_L6 0849                  __end_of_P1 0845  
                __end_of_P2 0841                  __end_of_P3 083D                  __end_of_P4 0839  
                __end_of_P5 0835                  __end_of_bp 0871                  __end_of_cp 0821  
                   ??_fabsf 0005                     ??_sqrtf 0042                  __pbssBANK0 00A2  
                   ?___flge 0032               ?_send_to_disp 0090                   ?___xxtofl 0001  
                   __Hparam 0000                     __Lparam 0000                     ___fladd 3638  
                   ___fldiv 439E                     ___flneg 5216                     ___flmul 3F74  
                   ___flsub 51D0                     ___fltol 4EE8                __psmallconst 0800  
                   __pcinit 52C4                     __ramtop 0800                     __ptext0 3AF8  
                   __ptext1 50F4                     __ptext2 0880                     __ptext3 3178  
                   __ptext4 5282                     __ptext5 4FF0                     __ptext6 49DC  
                   __ptext7 3F74                     __ptext8 524E                     __ptext9 4C10  
            ??_send_to_disp 005A                     _ivln2_h 0871                     _ivln2_l 0815  
                ??___xxtofl 0005                     _scalbnf 49DC       send_to_disp@disp_word 0090  
             ??_char_to_seg 0001                     main@key 005E                     main@num 00A6  
      end_of_initialization 52D0               __Lmediumconst 0000                     powf@p_h 019C  
                   powf@p_l 0164                     powf@s_h 016C                     powf@t_h 0168  
                   powf@s_l 0130                     powf@t_l 0134                     powf@z_h 0120  
                   powf@z_l 0124           __end_of_portsInit 52C4                     postinc0 000FEE  
                   sqrtf@ix 0080                   _PORTAbits 000F80                 ___fladd@grs 0010  
             ___xxtofl@sign 0009                 ___fldiv@grs 0045                 ___fldiv@rem 003E  
               ___flmul@grs 001E         __end_of_char_to_seg 4EE8              __end_of___flge 50F4  
       start_initialization 52C4               send_to_disp@i 009D                 __end_of_lg2 0831  
               __end_of_ovt 0825        __end_of_send_to_disp 51D0                    ??___flge 003A  
           _tiny@sqrtf$F764 0811               ??_key_scanner 0001                   ___fladd@a 0005  
                 ___fladd@b 0001                   ___fldiv@a 0036                   ___fldiv@b 0032  
                 ___flmul@a 0015                   ___flmul@b 0011                   ___flsub@a 002E  
                 ___flsub@b 002A               __pcstackBANK0 0060               __pcstackBANK1 0100  
               _char_to_seg 4DC4                    ?___fladd 0001                    ?___fldiv 0032  
                  ?___flneg 0001                    ?___flmul 0011                    ?___flsub 002A  
                  ?___fltol 008C                   fabsf@F465 00A2                 __smallconst 0800  
                  ?_scalbnf 002A         __end_of_key_scanner 49DC                    _LATAbits 000F89  
   __end_of_tiny@sqrtf$F764 0815                  powf@yisint 0150        send_to_disp@num_disp 009C  
                 _portsInit 52A4  send_to_disp@internal_sweep 0098                    __Hrparam 0000  
                  __Lrparam 0000              char_to_seg@num 0003                  ?_portsInit 0001  
               _key_scanner 4738                _send_to_disp 50F4                    ___xxtofl 4C10  
                  __ptext10 51D0                    __ptext11 3638                    __ptext12 5216  
                  __ptext13 439E                    __ptext14 4DC4                    __ptext15 4EE8  
                  __ptext16 52A4                    __ptext17 4738                    _powf$960 0154  
                  _powf$961 0148                    _powf$962 0194                    _powf$970 010C  
                  _powf$963 0138                    _powf$971 0110                    _powf$972 0114  
                  _powf$964 0100                    _powf$973 0118                    _powf$965 0104  
                  _powf$966 0158                    _powf$959 01A4                    _powf$967 013C  
                  _powf$968 0140                    _powf$969 0108        powf@__xc8_float_word 01B8  
                  isa$xinst 000000                ?_char_to_seg 0001                    scalbnf@n 002E  
                  scalbnf@u 0034                    scalbnf@x 002A                    scalbnf@y 0038  
       char_to_seg@segments 0004                 ??_portsInit 0001               ___fladd@signs 000D  
     sqrtf@__xc8_float_word 0068                ___fladd@aexp 000E                ___fladd@bexp 000F  
